SF:/workspace/base/backend/oauth/src/adapters/keycloak/keycloak_adapter.rs
FN:26,_RNCNvXNtNtNtCskY3J53qhLT7_5oauth8adapters8keycloak16keycloak_adapterNtB4_19KeycloakAuthAdapterNtNtNtNtBa_4core10interfaces13auth_provider12AuthProvider5login0Ba_
FN:41,_RNCNCNvXNtNtNtCskY3J53qhLT7_5oauth8adapters8keycloak16keycloak_adapterNtB6_19KeycloakAuthAdapterNtNtNtNtBc_4core10interfaces13auth_provider12AuthProvider5login00Bc_
FN:42,_RNCNCNCNvXNtNtNtCskY3J53qhLT7_5oauth8adapters8keycloak16keycloak_adapterNtB8_19KeycloakAuthAdapterNtNtNtNtBe_4core10interfaces13auth_provider12AuthProvider5login000Be_
FN:52,_RNCNCNvXNtNtNtCskY3J53qhLT7_5oauth8adapters8keycloak16keycloak_adapterNtB6_19KeycloakAuthAdapterNtNtNtNtBc_4core10interfaces13auth_provider12AuthProvider5login0s_0Bc_
FN:53,_RNCNCNCNvXNtNtNtCskY3J53qhLT7_5oauth8adapters8keycloak16keycloak_adapterNtB8_19KeycloakAuthAdapterNtNtNtNtBe_4core10interfaces13auth_provider12AuthProvider5login0s_00Be_
FN:62,_RNCNCNvXNtNtNtCskY3J53qhLT7_5oauth8adapters8keycloak16keycloak_adapterNtB6_19KeycloakAuthAdapterNtNtNtNtBc_4core10interfaces13auth_provider12AuthProvider5login0s0_0Bc_
FN:78,_RNCNvXs_NtNtNtCskY3J53qhLT7_5oauth8adapters8keycloak16keycloak_adapterNtB6_19KeycloakUserAdapterNtNtNtNtBc_4core10interfaces13user_provider12UserProvider11create_user0Bc_
FN:109,_RNCNCNvXs_NtNtNtCskY3J53qhLT7_5oauth8adapters8keycloak16keycloak_adapterNtB8_19KeycloakUserAdapterNtNtNtNtBe_4core10interfaces13user_provider12UserProvider11create_user00Be_
FN:110,_RNCNCNCNvXs_NtNtNtCskY3J53qhLT7_5oauth8adapters8keycloak16keycloak_adapterNtBa_19KeycloakUserAdapterNtNtNtNtBg_4core10interfaces13user_provider12UserProvider11create_user000Bg_
FN:122,_RNCNCNvXs_NtNtNtCskY3J53qhLT7_5oauth8adapters8keycloak16keycloak_adapterNtB8_19KeycloakUserAdapterNtNtNtNtBe_4core10interfaces13user_provider12UserProvider11create_user0s_0Be_
FN:123,_RNCNCNvXs_NtNtNtCskY3J53qhLT7_5oauth8adapters8keycloak16keycloak_adapterNtB8_19KeycloakUserAdapterNtNtNtNtBe_4core10interfaces13user_provider12UserProvider11create_user0s0_0Be_
FN:142,_RNCNCNvXs_NtNtNtCskY3J53qhLT7_5oauth8adapters8keycloak16keycloak_adapterNtB8_19KeycloakUserAdapterNtNtNtNtBe_4core10interfaces13user_provider12UserProvider11create_user0s1_0Be_
FN:152,_RNCNvXs_NtNtNtCskY3J53qhLT7_5oauth8adapters8keycloak16keycloak_adapterNtB6_19KeycloakUserAdapterNtNtNtNtBc_4core10interfaces13user_provider12UserProvider9get_users0Bc_
FN:167,_RNCNCNvXs_NtNtNtCskY3J53qhLT7_5oauth8adapters8keycloak16keycloak_adapterNtB8_19KeycloakUserAdapterNtNtNtNtBe_4core10interfaces13user_provider12UserProvider9get_users00Be_
FN:168,_RNCNCNCNvXs_NtNtNtCskY3J53qhLT7_5oauth8adapters8keycloak16keycloak_adapterNtBa_19KeycloakUserAdapterNtNtNtNtBg_4core10interfaces13user_provider12UserProvider9get_users000Bg_
FN:178,_RNCNCNvXs_NtNtNtCskY3J53qhLT7_5oauth8adapters8keycloak16keycloak_adapterNtB8_19KeycloakUserAdapterNtNtNtNtBe_4core10interfaces13user_provider12UserProvider9get_users0s_0Be_
FN:179,_RNCNCNCNvXs_NtNtNtCskY3J53qhLT7_5oauth8adapters8keycloak16keycloak_adapterNtBa_19KeycloakUserAdapterNtNtNtNtBg_4core10interfaces13user_provider12UserProvider9get_users0s_00Bg_
FN:186,_RNCNCNvXs_NtNtNtCskY3J53qhLT7_5oauth8adapters8keycloak16keycloak_adapterNtB8_19KeycloakUserAdapterNtNtNtNtBe_4core10interfaces13user_provider12UserProvider9get_users0s0_0Be_
FN:187,_RNCNCNCNvXs_NtNtNtCskY3J53qhLT7_5oauth8adapters8keycloak16keycloak_adapterNtBa_19KeycloakUserAdapterNtNtNtNtBg_4core10interfaces13user_provider12UserProvider9get_users0s0_00Bg_
FN:190,_RNCNCNCNvXs_NtNtNtCskY3J53qhLT7_5oauth8adapters8keycloak16keycloak_adapterNtBa_19KeycloakUserAdapterNtNtNtNtBg_4core10interfaces13user_provider12UserProvider9get_users0s0_0s_0Bg_
FN:191,_RNCNCNCNvXs_NtNtNtCskY3J53qhLT7_5oauth8adapters8keycloak16keycloak_adapterNtBa_19KeycloakUserAdapterNtNtNtNtBg_4core10interfaces13user_provider12UserProvider9get_users0s0_0s0_0Bg_
FN:191,_RNCNCNCNCNvXs_NtNtNtCskY3J53qhLT7_5oauth8adapters8keycloak16keycloak_adapterNtBc_19KeycloakUserAdapterNtNtNtNtBi_4core10interfaces13user_provider12UserProvider9get_users0s0_0s0_00Bi_
FN:196,_RNCNCNCNvXs_NtNtNtCskY3J53qhLT7_5oauth8adapters8keycloak16keycloak_adapterNtBa_19KeycloakUserAdapterNtNtNtNtBg_4core10interfaces13user_provider12UserProvider9get_users0s0_0s1_0Bg_
FN:197,_RNCNCNCNvXs_NtNtNtCskY3J53qhLT7_5oauth8adapters8keycloak16keycloak_adapterNtBa_19KeycloakUserAdapterNtNtNtNtBg_4core10interfaces13user_provider12UserProvider9get_users0s0_0s2_0Bg_
FN:198,_RNCNCNCNvXs_NtNtNtCskY3J53qhLT7_5oauth8adapters8keycloak16keycloak_adapterNtBa_19KeycloakUserAdapterNtNtNtNtBg_4core10interfaces13user_provider12UserProvider9get_users0s0_0s3_0Bg_
FN:203,_RNCNCNCNvXs_NtNtNtCskY3J53qhLT7_5oauth8adapters8keycloak16keycloak_adapterNtBa_19KeycloakUserAdapterNtNtNtNtBg_4core10interfaces13user_provider12UserProvider9get_users0s0_0s4_0Bg_
FN:204,_RNCNCNCNvXs_NtNtNtCskY3J53qhLT7_5oauth8adapters8keycloak16keycloak_adapterNtBa_19KeycloakUserAdapterNtNtNtNtBg_4core10interfaces13user_provider12UserProvider9get_users0s0_0s5_0Bg_
FN:205,_RNCNCNCNvXs_NtNtNtCskY3J53qhLT7_5oauth8adapters8keycloak16keycloak_adapterNtBa_19KeycloakUserAdapterNtNtNtNtBg_4core10interfaces13user_provider12UserProvider9get_users0s0_0s6_0Bg_
FN:208,_RNCNCNCNvXs_NtNtNtCskY3J53qhLT7_5oauth8adapters8keycloak16keycloak_adapterNtBa_19KeycloakUserAdapterNtNtNtNtBg_4core10interfaces13user_provider12UserProvider9get_users0s0_0s7_0Bg_
FN:226,_RNCNCNvXs_NtNtNtCskY3J53qhLT7_5oauth8adapters8keycloak16keycloak_adapterNtB8_19KeycloakUserAdapterNtNtNtNtBe_4core10interfaces13user_provider12UserProvider9get_users0s1_0Be_
FN:239,_RNCNvXs_NtNtNtCskY3J53qhLT7_5oauth8adapters8keycloak16keycloak_adapterNtB6_19KeycloakUserAdapterNtNtNtNtBc_4core10interfaces13user_provider12UserProvider8get_user0Bc_
FN:255,_RNCNCNvXs_NtNtNtCskY3J53qhLT7_5oauth8adapters8keycloak16keycloak_adapterNtB8_19KeycloakUserAdapterNtNtNtNtBe_4core10interfaces13user_provider12UserProvider8get_user00Be_
FN:256,_RNCNCNCNvXs_NtNtNtCskY3J53qhLT7_5oauth8adapters8keycloak16keycloak_adapterNtBa_19KeycloakUserAdapterNtNtNtNtBg_4core10interfaces13user_provider12UserProvider8get_user000Bg_
FN:267,_RNCNCNvXs_NtNtNtCskY3J53qhLT7_5oauth8adapters8keycloak16keycloak_adapterNtB8_19KeycloakUserAdapterNtNtNtNtBe_4core10interfaces13user_provider12UserProvider8get_user0s_0Be_
FN:268,_RNCNCNCNvXs_NtNtNtCskY3J53qhLT7_5oauth8adapters8keycloak16keycloak_adapterNtBa_19KeycloakUserAdapterNtNtNtNtBg_4core10interfaces13user_provider12UserProvider8get_user0s_00Bg_
FN:273,_RNCNCNvXs_NtNtNtCskY3J53qhLT7_5oauth8adapters8keycloak16keycloak_adapterNtB8_19KeycloakUserAdapterNtNtNtNtBe_4core10interfaces13user_provider12UserProvider8get_user0s0_0Be_
FN:276,_RNCNCNvXs_NtNtNtCskY3J53qhLT7_5oauth8adapters8keycloak16keycloak_adapterNtB8_19KeycloakUserAdapterNtNtNtNtBe_4core10interfaces13user_provider12UserProvider8get_user0s1_0Be_
FN:277,_RNCNCNvXs_NtNtNtCskY3J53qhLT7_5oauth8adapters8keycloak16keycloak_adapterNtB8_19KeycloakUserAdapterNtNtNtNtBe_4core10interfaces13user_provider12UserProvider8get_user0s2_0Be_
FN:277,_RNCNCNCNvXs_NtNtNtCskY3J53qhLT7_5oauth8adapters8keycloak16keycloak_adapterNtBa_19KeycloakUserAdapterNtNtNtNtBg_4core10interfaces13user_provider12UserProvider8get_user0s2_00Bg_
FN:282,_RNCNCNvXs_NtNtNtCskY3J53qhLT7_5oauth8adapters8keycloak16keycloak_adapterNtB8_19KeycloakUserAdapterNtNtNtNtBe_4core10interfaces13user_provider12UserProvider8get_user0s3_0Be_
FN:283,_RNCNCNvXs_NtNtNtCskY3J53qhLT7_5oauth8adapters8keycloak16keycloak_adapterNtB8_19KeycloakUserAdapterNtNtNtNtBe_4core10interfaces13user_provider12UserProvider8get_user0s4_0Be_
FN:284,_RNCNCNvXs_NtNtNtCskY3J53qhLT7_5oauth8adapters8keycloak16keycloak_adapterNtB8_19KeycloakUserAdapterNtNtNtNtBe_4core10interfaces13user_provider12UserProvider8get_user0s5_0Be_
FN:289,_RNCNCNvXs_NtNtNtCskY3J53qhLT7_5oauth8adapters8keycloak16keycloak_adapterNtB8_19KeycloakUserAdapterNtNtNtNtBe_4core10interfaces13user_provider12UserProvider8get_user0s6_0Be_
FN:290,_RNCNCNvXs_NtNtNtCskY3J53qhLT7_5oauth8adapters8keycloak16keycloak_adapterNtB8_19KeycloakUserAdapterNtNtNtNtBe_4core10interfaces13user_provider12UserProvider8get_user0s7_0Be_
FN:291,_RNCNCNvXs_NtNtNtCskY3J53qhLT7_5oauth8adapters8keycloak16keycloak_adapterNtB8_19KeycloakUserAdapterNtNtNtNtBe_4core10interfaces13user_provider12UserProvider8get_user0s8_0Be_
FN:294,_RNCNCNvXs_NtNtNtCskY3J53qhLT7_5oauth8adapters8keycloak16keycloak_adapterNtB8_19KeycloakUserAdapterNtNtNtNtBe_4core10interfaces13user_provider12UserProvider8get_user0s9_0Be_
FN:308,_RNCNCNvXs_NtNtNtCskY3J53qhLT7_5oauth8adapters8keycloak16keycloak_adapterNtB8_19KeycloakUserAdapterNtNtNtNtBe_4core10interfaces13user_provider12UserProvider8get_user0sa_0Be_
FN:326,_RNCNvXs_NtNtNtCskY3J53qhLT7_5oauth8adapters8keycloak16keycloak_adapterNtB6_19KeycloakUserAdapterNtNtNtNtBc_4core10interfaces13user_provider12UserProvider11update_user0Bc_
FN:344,_RNCNCNvXs_NtNtNtCskY3J53qhLT7_5oauth8adapters8keycloak16keycloak_adapterNtB8_19KeycloakUserAdapterNtNtNtNtBe_4core10interfaces13user_provider12UserProvider11update_user00Be_
FN:345,_RNCNCNCNvXs_NtNtNtCskY3J53qhLT7_5oauth8adapters8keycloak16keycloak_adapterNtBa_19KeycloakUserAdapterNtNtNtNtBg_4core10interfaces13user_provider12UserProvider11update_user000Bg_
FN:369,_RNCNCNvXs_NtNtNtCskY3J53qhLT7_5oauth8adapters8keycloak16keycloak_adapterNtB8_19KeycloakUserAdapterNtNtNtNtBe_4core10interfaces13user_provider12UserProvider11update_user0s_0Be_
FN:370,_RNCNCNCNvXs_NtNtNtCskY3J53qhLT7_5oauth8adapters8keycloak16keycloak_adapterNtBa_19KeycloakUserAdapterNtNtNtNtBg_4core10interfaces13user_provider12UserProvider11update_user0s_00Bg_
FN:394,_RNCNCNvXs_NtNtNtCskY3J53qhLT7_5oauth8adapters8keycloak16keycloak_adapterNtB8_19KeycloakUserAdapterNtNtNtNtBe_4core10interfaces13user_provider12UserProvider11update_user0s0_0Be_
FN:395,_RNCNCNCNvXs_NtNtNtCskY3J53qhLT7_5oauth8adapters8keycloak16keycloak_adapterNtBa_19KeycloakUserAdapterNtNtNtNtBg_4core10interfaces13user_provider12UserProvider11update_user0s0_00Bg_
FN:423,_RNCNCNvXs_NtNtNtCskY3J53qhLT7_5oauth8adapters8keycloak16keycloak_adapterNtB8_19KeycloakUserAdapterNtNtNtNtBe_4core10interfaces13user_provider12UserProvider11update_user0s1_0Be_
FN:433,_RNCNvXs_NtNtNtCskY3J53qhLT7_5oauth8adapters8keycloak16keycloak_adapterNtB6_19KeycloakUserAdapterNtNtNtNtBc_4core10interfaces13user_provider12UserProvider15update_password0Bc_
FN:456,_RNCNCNvXs_NtNtNtCskY3J53qhLT7_5oauth8adapters8keycloak16keycloak_adapterNtB8_19KeycloakUserAdapterNtNtNtNtBe_4core10interfaces13user_provider12UserProvider15update_password00Be_
FN:457,_RNCNCNCNvXs_NtNtNtCskY3J53qhLT7_5oauth8adapters8keycloak16keycloak_adapterNtBa_19KeycloakUserAdapterNtNtNtNtBg_4core10interfaces13user_provider12UserProvider15update_password000Bg_
FN:470,_RNCNCNvXs_NtNtNtCskY3J53qhLT7_5oauth8adapters8keycloak16keycloak_adapterNtB8_19KeycloakUserAdapterNtNtNtNtBe_4core10interfaces13user_provider12UserProvider15update_password0s_0Be_
FN:488,_RNCNvXs_NtNtNtCskY3J53qhLT7_5oauth8adapters8keycloak16keycloak_adapterNtB6_19KeycloakUserAdapterNtNtNtNtBc_4core10interfaces13user_provider12UserProvider11delete_user0Bc_
FN:507,_RNCNCNvXs_NtNtNtCskY3J53qhLT7_5oauth8adapters8keycloak16keycloak_adapterNtB8_19KeycloakUserAdapterNtNtNtNtBe_4core10interfaces13user_provider12UserProvider11delete_user00Be_
FN:508,_RNCNCNCNvXs_NtNtNtCskY3J53qhLT7_5oauth8adapters8keycloak16keycloak_adapterNtBa_19KeycloakUserAdapterNtNtNtNtBg_4core10interfaces13user_provider12UserProvider11delete_user000Bg_
FN:521,_RNCNCNvXs_NtNtNtCskY3J53qhLT7_5oauth8adapters8keycloak16keycloak_adapterNtB8_19KeycloakUserAdapterNtNtNtNtBe_4core10interfaces13user_provider12UserProvider11delete_user0s_0Be_
FN:539,_RNCNvXs_NtNtNtCskY3J53qhLT7_5oauth8adapters8keycloak16keycloak_adapterNtB6_19KeycloakUserAdapterNtNtNtNtBc_4core10interfaces13user_provider12UserProvider8add_role0Bc_
FN:555,_RNCNCNvXs_NtNtNtCskY3J53qhLT7_5oauth8adapters8keycloak16keycloak_adapterNtB8_19KeycloakUserAdapterNtNtNtNtBe_4core10interfaces13user_provider12UserProvider8add_role00Be_
FN:556,_RNCNCNCNvXs_NtNtNtCskY3J53qhLT7_5oauth8adapters8keycloak16keycloak_adapterNtBa_19KeycloakUserAdapterNtNtNtNtBg_4core10interfaces13user_provider12UserProvider8add_role000Bg_
FN:584,_RNCNCNvXs_NtNtNtCskY3J53qhLT7_5oauth8adapters8keycloak16keycloak_adapterNtB8_19KeycloakUserAdapterNtNtNtNtBe_4core10interfaces13user_provider12UserProvider8add_role0s_0Be_
FN:585,_RNCNCNCNvXs_NtNtNtCskY3J53qhLT7_5oauth8adapters8keycloak16keycloak_adapterNtBa_19KeycloakUserAdapterNtNtNtNtBg_4core10interfaces13user_provider12UserProvider8add_role0s_00Bg_
FN:593,_RNCNCNvXs_NtNtNtCskY3J53qhLT7_5oauth8adapters8keycloak16keycloak_adapterNtB8_19KeycloakUserAdapterNtNtNtNtBe_4core10interfaces13user_provider12UserProvider8add_role0s0_0Be_
FN:594,_RNCNCNvXs_NtNtNtCskY3J53qhLT7_5oauth8adapters8keycloak16keycloak_adapterNtB8_19KeycloakUserAdapterNtNtNtNtBe_4core10interfaces13user_provider12UserProvider8add_role0s1_0Be_
FN:595,_RNCNCNvXs_NtNtNtCskY3J53qhLT7_5oauth8adapters8keycloak16keycloak_adapterNtB8_19KeycloakUserAdapterNtNtNtNtBe_4core10interfaces13user_provider12UserProvider8add_role0s2_0Be_
FN:597,_RNCNCNCNvXs_NtNtNtCskY3J53qhLT7_5oauth8adapters8keycloak16keycloak_adapterNtBa_19KeycloakUserAdapterNtNtNtNtBg_4core10interfaces13user_provider12UserProvider8add_role0s2_00Bg_
FN:597,_RNCNCNCNCNvXs_NtNtNtCskY3J53qhLT7_5oauth8adapters8keycloak16keycloak_adapterNtBc_19KeycloakUserAdapterNtNtNtNtBi_4core10interfaces13user_provider12UserProvider8add_role0s2_000Bi_
FN:627,_RNCNCNvXs_NtNtNtCskY3J53qhLT7_5oauth8adapters8keycloak16keycloak_adapterNtB8_19KeycloakUserAdapterNtNtNtNtBe_4core10interfaces13user_provider12UserProvider8add_role0s3_0Be_
FN:628,_RNCNCNCNvXs_NtNtNtCskY3J53qhLT7_5oauth8adapters8keycloak16keycloak_adapterNtBa_19KeycloakUserAdapterNtNtNtNtBg_4core10interfaces13user_provider12UserProvider8add_role0s3_00Bg_
FN:644,_RNCNCNvXs_NtNtNtCskY3J53qhLT7_5oauth8adapters8keycloak16keycloak_adapterNtB8_19KeycloakUserAdapterNtNtNtNtBe_4core10interfaces13user_provider12UserProvider8add_role0s4_0Be_
FN:654,_RNCNvXs_NtNtNtCskY3J53qhLT7_5oauth8adapters8keycloak16keycloak_adapterNtB6_19KeycloakUserAdapterNtNtNtNtBc_4core10interfaces13user_provider12UserProvider11remove_role0Bc_
FN:670,_RNCNCNvXs_NtNtNtCskY3J53qhLT7_5oauth8adapters8keycloak16keycloak_adapterNtB8_19KeycloakUserAdapterNtNtNtNtBe_4core10interfaces13user_provider12UserProvider11remove_role00Be_
FN:671,_RNCNCNCNvXs_NtNtNtCskY3J53qhLT7_5oauth8adapters8keycloak16keycloak_adapterNtBa_19KeycloakUserAdapterNtNtNtNtBg_4core10interfaces13user_provider12UserProvider11remove_role000Bg_
FN:699,_RNCNCNvXs_NtNtNtCskY3J53qhLT7_5oauth8adapters8keycloak16keycloak_adapterNtB8_19KeycloakUserAdapterNtNtNtNtBe_4core10interfaces13user_provider12UserProvider11remove_role0s_0Be_
FN:700,_RNCNCNCNvXs_NtNtNtCskY3J53qhLT7_5oauth8adapters8keycloak16keycloak_adapterNtBa_19KeycloakUserAdapterNtNtNtNtBg_4core10interfaces13user_provider12UserProvider11remove_role0s_00Bg_
FN:726,_RNCNCNvXs_NtNtNtCskY3J53qhLT7_5oauth8adapters8keycloak16keycloak_adapterNtB8_19KeycloakUserAdapterNtNtNtNtBe_4core10interfaces13user_provider12UserProvider11remove_role0s0_0Be_
FN:727,_RNCNCNCNvXs_NtNtNtCskY3J53qhLT7_5oauth8adapters8keycloak16keycloak_adapterNtBa_19KeycloakUserAdapterNtNtNtNtBg_4core10interfaces13user_provider12UserProvider11remove_role0s0_00Bg_
FN:743,_RNCNCNvXs_NtNtNtCskY3J53qhLT7_5oauth8adapters8keycloak16keycloak_adapterNtB8_19KeycloakUserAdapterNtNtNtNtBe_4core10interfaces13user_provider12UserProvider11remove_role0s1_0Be_
FN:617,_RNCNCNvXs_NtNtNtCskY3J53qhLT7_5oauth8adapters8keycloak16keycloak_adapterNtB8_19KeycloakUserAdapterNtNtNtNtBe_4core10interfaces13user_provider12UserProvider8add_role0s5_0Be_
FN:618,_RNCNCNvXs_NtNtNtCskY3J53qhLT7_5oauth8adapters8keycloak16keycloak_adapterNtB8_19KeycloakUserAdapterNtNtNtNtBe_4core10interfaces13user_provider12UserProvider8add_role0s6_0Be_
FN:716,_RNCNCNvXs_NtNtNtCskY3J53qhLT7_5oauth8adapters8keycloak16keycloak_adapterNtB8_19KeycloakUserAdapterNtNtNtNtBe_4core10interfaces13user_provider12UserProvider11remove_role0s2_0Be_
FN:717,_RNCNCNvXs_NtNtNtCskY3J53qhLT7_5oauth8adapters8keycloak16keycloak_adapterNtB8_19KeycloakUserAdapterNtNtNtNtBe_4core10interfaces13user_provider12UserProvider11remove_role0s3_0Be_
FN:756,_RNCNvXs0_NtNtNtCskY3J53qhLT7_5oauth8adapters8keycloak16keycloak_adapterNtB7_19KeycloakRoleAdapterNtNtNtNtBd_4core10interfaces13role_provider12RoleProvider11create_role0Bd_
FN:772,_RNCNCNvXs0_NtNtNtCskY3J53qhLT7_5oauth8adapters8keycloak16keycloak_adapterNtB9_19KeycloakRoleAdapterNtNtNtNtBf_4core10interfaces13role_provider12RoleProvider11create_role00Bf_
FN:773,_RNCNCNCNvXs0_NtNtNtCskY3J53qhLT7_5oauth8adapters8keycloak16keycloak_adapterNtBb_19KeycloakRoleAdapterNtNtNtNtBh_4core10interfaces13role_provider12RoleProvider11create_role000Bh_
FN:784,_RNCNCNvXs0_NtNtNtCskY3J53qhLT7_5oauth8adapters8keycloak16keycloak_adapterNtB9_19KeycloakRoleAdapterNtNtNtNtBf_4core10interfaces13role_provider12RoleProvider11create_role0s_0Bf_
FN:798,_RNCNCNvXs0_NtNtNtCskY3J53qhLT7_5oauth8adapters8keycloak16keycloak_adapterNtB9_19KeycloakRoleAdapterNtNtNtNtBf_4core10interfaces13role_provider12RoleProvider11create_role0s0_0Bf_
FN:808,_RNCNvXs0_NtNtNtCskY3J53qhLT7_5oauth8adapters8keycloak16keycloak_adapterNtB7_19KeycloakRoleAdapterNtNtNtNtBd_4core10interfaces13role_provider12RoleProvider9get_roles0Bd_
FN:823,_RNCNCNvXs0_NtNtNtCskY3J53qhLT7_5oauth8adapters8keycloak16keycloak_adapterNtB9_19KeycloakRoleAdapterNtNtNtNtBf_4core10interfaces13role_provider12RoleProvider9get_roles00Bf_
FN:824,_RNCNCNCNvXs0_NtNtNtCskY3J53qhLT7_5oauth8adapters8keycloak16keycloak_adapterNtBb_19KeycloakRoleAdapterNtNtNtNtBh_4core10interfaces13role_provider12RoleProvider9get_roles000Bh_
FN:832,_RNCNCNvXs0_NtNtNtCskY3J53qhLT7_5oauth8adapters8keycloak16keycloak_adapterNtB9_19KeycloakRoleAdapterNtNtNtNtBf_4core10interfaces13role_provider12RoleProvider9get_roles0s_0Bf_
FN:834,_RNCNCNCNvXs0_NtNtNtCskY3J53qhLT7_5oauth8adapters8keycloak16keycloak_adapterNtBb_19KeycloakRoleAdapterNtNtNtNtBh_4core10interfaces13role_provider12RoleProvider9get_roles0s_00Bh_
FN:842,_RNCNCNvXs0_NtNtNtCskY3J53qhLT7_5oauth8adapters8keycloak16keycloak_adapterNtB9_19KeycloakRoleAdapterNtNtNtNtBf_4core10interfaces13role_provider12RoleProvider9get_roles0s0_0Bf_
FN:845,_RNCNCNCNvXs0_NtNtNtCskY3J53qhLT7_5oauth8adapters8keycloak16keycloak_adapterNtBb_19KeycloakRoleAdapterNtNtNtNtBh_4core10interfaces13role_provider12RoleProvider9get_roles0s0_00Bh_
FN:846,_RNCNCNCNvXs0_NtNtNtCskY3J53qhLT7_5oauth8adapters8keycloak16keycloak_adapterNtBb_19KeycloakRoleAdapterNtNtNtNtBh_4core10interfaces13role_provider12RoleProvider9get_roles0s0_0s_0Bh_
FN:847,_RNCNCNCNvXs0_NtNtNtCskY3J53qhLT7_5oauth8adapters8keycloak16keycloak_adapterNtBb_19KeycloakRoleAdapterNtNtNtNtBh_4core10interfaces13role_provider12RoleProvider9get_roles0s0_0s0_0Bh_
FN:849,_RNCNCNCNCNvXs0_NtNtNtCskY3J53qhLT7_5oauth8adapters8keycloak16keycloak_adapterNtBd_19KeycloakRoleAdapterNtNtNtNtBj_4core10interfaces13role_provider12RoleProvider9get_roles0s0_0s0_00Bj_
FN:849,_RNCNCNCNCNCNvXs0_NtNtNtCskY3J53qhLT7_5oauth8adapters8keycloak16keycloak_adapterNtBf_19KeycloakRoleAdapterNtNtNtNtBl_4core10interfaces13role_provider12RoleProvider9get_roles0s0_0s0_000Bl_
FN:855,_RNCNCNvXs0_NtNtNtCskY3J53qhLT7_5oauth8adapters8keycloak16keycloak_adapterNtB9_19KeycloakRoleAdapterNtNtNtNtBf_4core10interfaces13role_provider12RoleProvider9get_roles0s1_0Bf_
FN:856,_RNCNCNCNvXs0_NtNtNtCskY3J53qhLT7_5oauth8adapters8keycloak16keycloak_adapterNtBb_19KeycloakRoleAdapterNtNtNtNtBh_4core10interfaces13role_provider12RoleProvider9get_roles0s1_00Bh_
FN:857,_RNCNCNCNvXs0_NtNtNtCskY3J53qhLT7_5oauth8adapters8keycloak16keycloak_adapterNtBb_19KeycloakRoleAdapterNtNtNtNtBh_4core10interfaces13role_provider12RoleProvider9get_roles0s1_0s_0Bh_
FN:858,_RNCNCNCNvXs0_NtNtNtCskY3J53qhLT7_5oauth8adapters8keycloak16keycloak_adapterNtBb_19KeycloakRoleAdapterNtNtNtNtBh_4core10interfaces13role_provider12RoleProvider9get_roles0s1_0s0_0Bh_
FN:867,_RNCNCNvXs0_NtNtNtCskY3J53qhLT7_5oauth8adapters8keycloak16keycloak_adapterNtB9_19KeycloakRoleAdapterNtNtNtNtBf_4core10interfaces13role_provider12RoleProvider9get_roles0s2_0Bf_
FN:877,_RNCNvXs0_NtNtNtCskY3J53qhLT7_5oauth8adapters8keycloak16keycloak_adapterNtB7_19KeycloakRoleAdapterNtNtNtNtBd_4core10interfaces13role_provider12RoleProvider8get_role0Bd_
FN:893,_RNCNCNvXs0_NtNtNtCskY3J53qhLT7_5oauth8adapters8keycloak16keycloak_adapterNtB9_19KeycloakRoleAdapterNtNtNtNtBf_4core10interfaces13role_provider12RoleProvider8get_role00Bf_
FN:894,_RNCNCNCNvXs0_NtNtNtCskY3J53qhLT7_5oauth8adapters8keycloak16keycloak_adapterNtBb_19KeycloakRoleAdapterNtNtNtNtBh_4core10interfaces13role_provider12RoleProvider8get_role000Bh_
FN:902,_RNCNCNvXs0_NtNtNtCskY3J53qhLT7_5oauth8adapters8keycloak16keycloak_adapterNtB9_19KeycloakRoleAdapterNtNtNtNtBf_4core10interfaces13role_provider12RoleProvider8get_role0s_0Bf_
FN:904,_RNCNCNCNvXs0_NtNtNtCskY3J53qhLT7_5oauth8adapters8keycloak16keycloak_adapterNtBb_19KeycloakRoleAdapterNtNtNtNtBh_4core10interfaces13role_provider12RoleProvider8get_role0s_00Bh_
FN:912,_RNCNCNvXs0_NtNtNtCskY3J53qhLT7_5oauth8adapters8keycloak16keycloak_adapterNtB9_19KeycloakRoleAdapterNtNtNtNtBf_4core10interfaces13role_provider12RoleProvider8get_role0s0_0Bf_
FN:913,_RNCNCNvXs0_NtNtNtCskY3J53qhLT7_5oauth8adapters8keycloak16keycloak_adapterNtB9_19KeycloakRoleAdapterNtNtNtNtBf_4core10interfaces13role_provider12RoleProvider8get_role0s1_0Bf_
FN:914,_RNCNCNvXs0_NtNtNtCskY3J53qhLT7_5oauth8adapters8keycloak16keycloak_adapterNtB9_19KeycloakRoleAdapterNtNtNtNtBf_4core10interfaces13role_provider12RoleProvider8get_role0s2_0Bf_
FN:916,_RNCNCNCNvXs0_NtNtNtCskY3J53qhLT7_5oauth8adapters8keycloak16keycloak_adapterNtBb_19KeycloakRoleAdapterNtNtNtNtBh_4core10interfaces13role_provider12RoleProvider8get_role0s2_00Bh_
FN:916,_RNCNCNCNCNvXs0_NtNtNtCskY3J53qhLT7_5oauth8adapters8keycloak16keycloak_adapterNtBd_19KeycloakRoleAdapterNtNtNtNtBj_4core10interfaces13role_provider12RoleProvider8get_role0s2_000Bj_
FN:929,_RNCNCNvXs0_NtNtNtCskY3J53qhLT7_5oauth8adapters8keycloak16keycloak_adapterNtB9_19KeycloakRoleAdapterNtNtNtNtBf_4core10interfaces13role_provider12RoleProvider8get_role0s3_0Bf_
FN:930,_RNCNCNvXs0_NtNtNtCskY3J53qhLT7_5oauth8adapters8keycloak16keycloak_adapterNtB9_19KeycloakRoleAdapterNtNtNtNtBf_4core10interfaces13role_provider12RoleProvider8get_role0s4_0Bf_
FN:931,_RNCNCNvXs0_NtNtNtCskY3J53qhLT7_5oauth8adapters8keycloak16keycloak_adapterNtB9_19KeycloakRoleAdapterNtNtNtNtBf_4core10interfaces13role_provider12RoleProvider8get_role0s5_0Bf_
FN:943,_RNCNCNvXs0_NtNtNtCskY3J53qhLT7_5oauth8adapters8keycloak16keycloak_adapterNtB9_19KeycloakRoleAdapterNtNtNtNtBf_4core10interfaces13role_provider12RoleProvider8get_role0s6_0Bf_
FN:953,_RNCNvXs0_NtNtNtCskY3J53qhLT7_5oauth8adapters8keycloak16keycloak_adapterNtB7_19KeycloakRoleAdapterNtNtNtNtBd_4core10interfaces13role_provider12RoleProvider11update_role0Bd_
FN:970,_RNCNCNvXs0_NtNtNtCskY3J53qhLT7_5oauth8adapters8keycloak16keycloak_adapterNtB9_19KeycloakRoleAdapterNtNtNtNtBf_4core10interfaces13role_provider12RoleProvider11update_role00Bf_
FN:971,_RNCNCNCNvXs0_NtNtNtCskY3J53qhLT7_5oauth8adapters8keycloak16keycloak_adapterNtBb_19KeycloakRoleAdapterNtNtNtNtBh_4core10interfaces13role_provider12RoleProvider11update_role000Bh_
FN:992,_RNCNCNvXs0_NtNtNtCskY3J53qhLT7_5oauth8adapters8keycloak16keycloak_adapterNtB9_19KeycloakRoleAdapterNtNtNtNtBf_4core10interfaces13role_provider12RoleProvider11update_role0s_0Bf_
FN:1002,_RNCNvXs0_NtNtNtCskY3J53qhLT7_5oauth8adapters8keycloak16keycloak_adapterNtB7_19KeycloakRoleAdapterNtNtNtNtBd_4core10interfaces13role_provider12RoleProvider10patch_role0Bd_
FN:1019,_RNCNCNvXs0_NtNtNtCskY3J53qhLT7_5oauth8adapters8keycloak16keycloak_adapterNtB9_19KeycloakRoleAdapterNtNtNtNtBf_4core10interfaces13role_provider12RoleProvider10patch_role00Bf_
FN:1020,_RNCNCNCNvXs0_NtNtNtCskY3J53qhLT7_5oauth8adapters8keycloak16keycloak_adapterNtBb_19KeycloakRoleAdapterNtNtNtNtBh_4core10interfaces13role_provider12RoleProvider10patch_role000Bh_
FN:1039,_RNCNCNvXs0_NtNtNtCskY3J53qhLT7_5oauth8adapters8keycloak16keycloak_adapterNtB9_19KeycloakRoleAdapterNtNtNtNtBf_4core10interfaces13role_provider12RoleProvider10patch_role0s_0Bf_
FN:1049,_RNCNvXs0_NtNtNtCskY3J53qhLT7_5oauth8adapters8keycloak16keycloak_adapterNtB7_19KeycloakRoleAdapterNtNtNtNtBd_4core10interfaces13role_provider12RoleProvider11delete_role0Bd_
FN:1065,_RNCNCNvXs0_NtNtNtCskY3J53qhLT7_5oauth8adapters8keycloak16keycloak_adapterNtB9_19KeycloakRoleAdapterNtNtNtNtBf_4core10interfaces13role_provider12RoleProvider11delete_role00Bf_
FN:1066,_RNCNCNCNvXs0_NtNtNtCskY3J53qhLT7_5oauth8adapters8keycloak16keycloak_adapterNtBb_19KeycloakRoleAdapterNtNtNtNtBh_4core10interfaces13role_provider12RoleProvider11delete_role000Bh_
FN:1082,_RNCNCNvXs0_NtNtNtCskY3J53qhLT7_5oauth8adapters8keycloak16keycloak_adapterNtB9_19KeycloakRoleAdapterNtNtNtNtBf_4core10interfaces13role_provider12RoleProvider11delete_role0s_0Bf_
FN:26,_RNvXNtNtNtCskY3J53qhLT7_5oauth8adapters8keycloak16keycloak_adapterNtB2_19KeycloakAuthAdapterNtNtNtNtB8_4core10interfaces13auth_provider12AuthProvider5login
FN:78,_RNvXs_NtNtNtCskY3J53qhLT7_5oauth8adapters8keycloak16keycloak_adapterNtB4_19KeycloakUserAdapterNtNtNtNtBa_4core10interfaces13user_provider12UserProvider11create_user
FN:152,_RNvXs_NtNtNtCskY3J53qhLT7_5oauth8adapters8keycloak16keycloak_adapterNtB4_19KeycloakUserAdapterNtNtNtNtBa_4core10interfaces13user_provider12UserProvider9get_users
FN:239,_RNvXs_NtNtNtCskY3J53qhLT7_5oauth8adapters8keycloak16keycloak_adapterNtB4_19KeycloakUserAdapterNtNtNtNtBa_4core10interfaces13user_provider12UserProvider8get_user
FN:326,_RNvXs_NtNtNtCskY3J53qhLT7_5oauth8adapters8keycloak16keycloak_adapterNtB4_19KeycloakUserAdapterNtNtNtNtBa_4core10interfaces13user_provider12UserProvider11update_user
FN:433,_RNvXs_NtNtNtCskY3J53qhLT7_5oauth8adapters8keycloak16keycloak_adapterNtB4_19KeycloakUserAdapterNtNtNtNtBa_4core10interfaces13user_provider12UserProvider15update_password
FN:488,_RNvXs_NtNtNtCskY3J53qhLT7_5oauth8adapters8keycloak16keycloak_adapterNtB4_19KeycloakUserAdapterNtNtNtNtBa_4core10interfaces13user_provider12UserProvider11delete_user
FN:539,_RNvXs_NtNtNtCskY3J53qhLT7_5oauth8adapters8keycloak16keycloak_adapterNtB4_19KeycloakUserAdapterNtNtNtNtBa_4core10interfaces13user_provider12UserProvider8add_role
FN:654,_RNvXs_NtNtNtCskY3J53qhLT7_5oauth8adapters8keycloak16keycloak_adapterNtB4_19KeycloakUserAdapterNtNtNtNtBa_4core10interfaces13user_provider12UserProvider11remove_role
FN:756,_RNvXs0_NtNtNtCskY3J53qhLT7_5oauth8adapters8keycloak16keycloak_adapterNtB5_19KeycloakRoleAdapterNtNtNtNtBb_4core10interfaces13role_provider12RoleProvider11create_role
FN:808,_RNvXs0_NtNtNtCskY3J53qhLT7_5oauth8adapters8keycloak16keycloak_adapterNtB5_19KeycloakRoleAdapterNtNtNtNtBb_4core10interfaces13role_provider12RoleProvider9get_roles
FN:877,_RNvXs0_NtNtNtCskY3J53qhLT7_5oauth8adapters8keycloak16keycloak_adapterNtB5_19KeycloakRoleAdapterNtNtNtNtBb_4core10interfaces13role_provider12RoleProvider8get_role
FN:953,_RNvXs0_NtNtNtCskY3J53qhLT7_5oauth8adapters8keycloak16keycloak_adapterNtB5_19KeycloakRoleAdapterNtNtNtNtBb_4core10interfaces13role_provider12RoleProvider11update_role
FN:1002,_RNvXs0_NtNtNtCskY3J53qhLT7_5oauth8adapters8keycloak16keycloak_adapterNtB5_19KeycloakRoleAdapterNtNtNtNtBb_4core10interfaces13role_provider12RoleProvider10patch_role
FN:1049,_RNvXs0_NtNtNtCskY3J53qhLT7_5oauth8adapters8keycloak16keycloak_adapterNtB5_19KeycloakRoleAdapterNtNtNtNtBb_4core10interfaces13role_provider12RoleProvider11delete_role
FN:26,_RNvXNtNtNtCs16bWprmmhjH_5oauth8adapters8keycloak16keycloak_adapterNtB2_19KeycloakAuthAdapterNtNtNtNtB8_4core10interfaces13auth_provider12AuthProvider5login
FN:26,_RNCNvXNtNtNtCs16bWprmmhjH_5oauth8adapters8keycloak16keycloak_adapterNtB4_19KeycloakAuthAdapterNtNtNtNtBa_4core10interfaces13auth_provider12AuthProvider5login0Ba_
FN:41,_RNCNCNvXNtNtNtCs16bWprmmhjH_5oauth8adapters8keycloak16keycloak_adapterNtB6_19KeycloakAuthAdapterNtNtNtNtBc_4core10interfaces13auth_provider12AuthProvider5login00Bc_
FN:42,_RNCNCNCNvXNtNtNtCs16bWprmmhjH_5oauth8adapters8keycloak16keycloak_adapterNtB8_19KeycloakAuthAdapterNtNtNtNtBe_4core10interfaces13auth_provider12AuthProvider5login000Be_
FN:52,_RNCNCNvXNtNtNtCs16bWprmmhjH_5oauth8adapters8keycloak16keycloak_adapterNtB6_19KeycloakAuthAdapterNtNtNtNtBc_4core10interfaces13auth_provider12AuthProvider5login0s_0Bc_
FN:53,_RNCNCNCNvXNtNtNtCs16bWprmmhjH_5oauth8adapters8keycloak16keycloak_adapterNtB8_19KeycloakAuthAdapterNtNtNtNtBe_4core10interfaces13auth_provider12AuthProvider5login0s_00Be_
FN:62,_RNCNCNvXNtNtNtCs16bWprmmhjH_5oauth8adapters8keycloak16keycloak_adapterNtB6_19KeycloakAuthAdapterNtNtNtNtBc_4core10interfaces13auth_provider12AuthProvider5login0s0_0Bc_
FN:78,_RNvXs_NtNtNtCs16bWprmmhjH_5oauth8adapters8keycloak16keycloak_adapterNtB4_19KeycloakUserAdapterNtNtNtNtBa_4core10interfaces13user_provider12UserProvider11create_user
FN:78,_RNCNvXs_NtNtNtCs16bWprmmhjH_5oauth8adapters8keycloak16keycloak_adapterNtB6_19KeycloakUserAdapterNtNtNtNtBc_4core10interfaces13user_provider12UserProvider11create_user0Bc_
FN:109,_RNCNCNvXs_NtNtNtCs16bWprmmhjH_5oauth8adapters8keycloak16keycloak_adapterNtB8_19KeycloakUserAdapterNtNtNtNtBe_4core10interfaces13user_provider12UserProvider11create_user00Be_
FN:110,_RNCNCNCNvXs_NtNtNtCs16bWprmmhjH_5oauth8adapters8keycloak16keycloak_adapterNtBa_19KeycloakUserAdapterNtNtNtNtBg_4core10interfaces13user_provider12UserProvider11create_user000Bg_
FN:122,_RNCNCNvXs_NtNtNtCs16bWprmmhjH_5oauth8adapters8keycloak16keycloak_adapterNtB8_19KeycloakUserAdapterNtNtNtNtBe_4core10interfaces13user_provider12UserProvider11create_user0s_0Be_
FN:123,_RNCNCNvXs_NtNtNtCs16bWprmmhjH_5oauth8adapters8keycloak16keycloak_adapterNtB8_19KeycloakUserAdapterNtNtNtNtBe_4core10interfaces13user_provider12UserProvider11create_user0s0_0Be_
FN:142,_RNCNCNvXs_NtNtNtCs16bWprmmhjH_5oauth8adapters8keycloak16keycloak_adapterNtB8_19KeycloakUserAdapterNtNtNtNtBe_4core10interfaces13user_provider12UserProvider11create_user0s1_0Be_
FN:152,_RNvXs_NtNtNtCs16bWprmmhjH_5oauth8adapters8keycloak16keycloak_adapterNtB4_19KeycloakUserAdapterNtNtNtNtBa_4core10interfaces13user_provider12UserProvider9get_users
FN:152,_RNCNvXs_NtNtNtCs16bWprmmhjH_5oauth8adapters8keycloak16keycloak_adapterNtB6_19KeycloakUserAdapterNtNtNtNtBc_4core10interfaces13user_provider12UserProvider9get_users0Bc_
FN:167,_RNCNCNvXs_NtNtNtCs16bWprmmhjH_5oauth8adapters8keycloak16keycloak_adapterNtB8_19KeycloakUserAdapterNtNtNtNtBe_4core10interfaces13user_provider12UserProvider9get_users00Be_
FN:168,_RNCNCNCNvXs_NtNtNtCs16bWprmmhjH_5oauth8adapters8keycloak16keycloak_adapterNtBa_19KeycloakUserAdapterNtNtNtNtBg_4core10interfaces13user_provider12UserProvider9get_users000Bg_
FN:178,_RNCNCNvXs_NtNtNtCs16bWprmmhjH_5oauth8adapters8keycloak16keycloak_adapterNtB8_19KeycloakUserAdapterNtNtNtNtBe_4core10interfaces13user_provider12UserProvider9get_users0s_0Be_
FN:179,_RNCNCNCNvXs_NtNtNtCs16bWprmmhjH_5oauth8adapters8keycloak16keycloak_adapterNtBa_19KeycloakUserAdapterNtNtNtNtBg_4core10interfaces13user_provider12UserProvider9get_users0s_00Bg_
FN:186,_RNCNCNvXs_NtNtNtCs16bWprmmhjH_5oauth8adapters8keycloak16keycloak_adapterNtB8_19KeycloakUserAdapterNtNtNtNtBe_4core10interfaces13user_provider12UserProvider9get_users0s0_0Be_
FN:187,_RNCNCNCNvXs_NtNtNtCs16bWprmmhjH_5oauth8adapters8keycloak16keycloak_adapterNtBa_19KeycloakUserAdapterNtNtNtNtBg_4core10interfaces13user_provider12UserProvider9get_users0s0_00Bg_
FN:190,_RNCNCNCNvXs_NtNtNtCs16bWprmmhjH_5oauth8adapters8keycloak16keycloak_adapterNtBa_19KeycloakUserAdapterNtNtNtNtBg_4core10interfaces13user_provider12UserProvider9get_users0s0_0s_0Bg_
FN:191,_RNCNCNCNvXs_NtNtNtCs16bWprmmhjH_5oauth8adapters8keycloak16keycloak_adapterNtBa_19KeycloakUserAdapterNtNtNtNtBg_4core10interfaces13user_provider12UserProvider9get_users0s0_0s0_0Bg_
FN:191,_RNCNCNCNCNvXs_NtNtNtCs16bWprmmhjH_5oauth8adapters8keycloak16keycloak_adapterNtBc_19KeycloakUserAdapterNtNtNtNtBi_4core10interfaces13user_provider12UserProvider9get_users0s0_0s0_00Bi_
FN:196,_RNCNCNCNvXs_NtNtNtCs16bWprmmhjH_5oauth8adapters8keycloak16keycloak_adapterNtBa_19KeycloakUserAdapterNtNtNtNtBg_4core10interfaces13user_provider12UserProvider9get_users0s0_0s1_0Bg_
FN:197,_RNCNCNCNvXs_NtNtNtCs16bWprmmhjH_5oauth8adapters8keycloak16keycloak_adapterNtBa_19KeycloakUserAdapterNtNtNtNtBg_4core10interfaces13user_provider12UserProvider9get_users0s0_0s2_0Bg_
FN:198,_RNCNCNCNvXs_NtNtNtCs16bWprmmhjH_5oauth8adapters8keycloak16keycloak_adapterNtBa_19KeycloakUserAdapterNtNtNtNtBg_4core10interfaces13user_provider12UserProvider9get_users0s0_0s3_0Bg_
FN:203,_RNCNCNCNvXs_NtNtNtCs16bWprmmhjH_5oauth8adapters8keycloak16keycloak_adapterNtBa_19KeycloakUserAdapterNtNtNtNtBg_4core10interfaces13user_provider12UserProvider9get_users0s0_0s4_0Bg_
FN:204,_RNCNCNCNvXs_NtNtNtCs16bWprmmhjH_5oauth8adapters8keycloak16keycloak_adapterNtBa_19KeycloakUserAdapterNtNtNtNtBg_4core10interfaces13user_provider12UserProvider9get_users0s0_0s5_0Bg_
FN:205,_RNCNCNCNvXs_NtNtNtCs16bWprmmhjH_5oauth8adapters8keycloak16keycloak_adapterNtBa_19KeycloakUserAdapterNtNtNtNtBg_4core10interfaces13user_provider12UserProvider9get_users0s0_0s6_0Bg_
FN:208,_RNCNCNCNvXs_NtNtNtCs16bWprmmhjH_5oauth8adapters8keycloak16keycloak_adapterNtBa_19KeycloakUserAdapterNtNtNtNtBg_4core10interfaces13user_provider12UserProvider9get_users0s0_0s7_0Bg_
FN:226,_RNCNCNvXs_NtNtNtCs16bWprmmhjH_5oauth8adapters8keycloak16keycloak_adapterNtB8_19KeycloakUserAdapterNtNtNtNtBe_4core10interfaces13user_provider12UserProvider9get_users0s1_0Be_
FN:239,_RNvXs_NtNtNtCs16bWprmmhjH_5oauth8adapters8keycloak16keycloak_adapterNtB4_19KeycloakUserAdapterNtNtNtNtBa_4core10interfaces13user_provider12UserProvider8get_user
FN:239,_RNCNvXs_NtNtNtCs16bWprmmhjH_5oauth8adapters8keycloak16keycloak_adapterNtB6_19KeycloakUserAdapterNtNtNtNtBc_4core10interfaces13user_provider12UserProvider8get_user0Bc_
FN:255,_RNCNCNvXs_NtNtNtCs16bWprmmhjH_5oauth8adapters8keycloak16keycloak_adapterNtB8_19KeycloakUserAdapterNtNtNtNtBe_4core10interfaces13user_provider12UserProvider8get_user00Be_
FN:256,_RNCNCNCNvXs_NtNtNtCs16bWprmmhjH_5oauth8adapters8keycloak16keycloak_adapterNtBa_19KeycloakUserAdapterNtNtNtNtBg_4core10interfaces13user_provider12UserProvider8get_user000Bg_
FN:267,_RNCNCNvXs_NtNtNtCs16bWprmmhjH_5oauth8adapters8keycloak16keycloak_adapterNtB8_19KeycloakUserAdapterNtNtNtNtBe_4core10interfaces13user_provider12UserProvider8get_user0s_0Be_
FN:268,_RNCNCNCNvXs_NtNtNtCs16bWprmmhjH_5oauth8adapters8keycloak16keycloak_adapterNtBa_19KeycloakUserAdapterNtNtNtNtBg_4core10interfaces13user_provider12UserProvider8get_user0s_00Bg_
FN:273,_RNCNCNvXs_NtNtNtCs16bWprmmhjH_5oauth8adapters8keycloak16keycloak_adapterNtB8_19KeycloakUserAdapterNtNtNtNtBe_4core10interfaces13user_provider12UserProvider8get_user0s0_0Be_
FN:276,_RNCNCNvXs_NtNtNtCs16bWprmmhjH_5oauth8adapters8keycloak16keycloak_adapterNtB8_19KeycloakUserAdapterNtNtNtNtBe_4core10interfaces13user_provider12UserProvider8get_user0s1_0Be_
FN:277,_RNCNCNvXs_NtNtNtCs16bWprmmhjH_5oauth8adapters8keycloak16keycloak_adapterNtB8_19KeycloakUserAdapterNtNtNtNtBe_4core10interfaces13user_provider12UserProvider8get_user0s2_0Be_
FN:277,_RNCNCNCNvXs_NtNtNtCs16bWprmmhjH_5oauth8adapters8keycloak16keycloak_adapterNtBa_19KeycloakUserAdapterNtNtNtNtBg_4core10interfaces13user_provider12UserProvider8get_user0s2_00Bg_
FN:282,_RNCNCNvXs_NtNtNtCs16bWprmmhjH_5oauth8adapters8keycloak16keycloak_adapterNtB8_19KeycloakUserAdapterNtNtNtNtBe_4core10interfaces13user_provider12UserProvider8get_user0s3_0Be_
FN:283,_RNCNCNvXs_NtNtNtCs16bWprmmhjH_5oauth8adapters8keycloak16keycloak_adapterNtB8_19KeycloakUserAdapterNtNtNtNtBe_4core10interfaces13user_provider12UserProvider8get_user0s4_0Be_
FN:284,_RNCNCNvXs_NtNtNtCs16bWprmmhjH_5oauth8adapters8keycloak16keycloak_adapterNtB8_19KeycloakUserAdapterNtNtNtNtBe_4core10interfaces13user_provider12UserProvider8get_user0s5_0Be_
FN:289,_RNCNCNvXs_NtNtNtCs16bWprmmhjH_5oauth8adapters8keycloak16keycloak_adapterNtB8_19KeycloakUserAdapterNtNtNtNtBe_4core10interfaces13user_provider12UserProvider8get_user0s6_0Be_
FN:290,_RNCNCNvXs_NtNtNtCs16bWprmmhjH_5oauth8adapters8keycloak16keycloak_adapterNtB8_19KeycloakUserAdapterNtNtNtNtBe_4core10interfaces13user_provider12UserProvider8get_user0s7_0Be_
FN:291,_RNCNCNvXs_NtNtNtCs16bWprmmhjH_5oauth8adapters8keycloak16keycloak_adapterNtB8_19KeycloakUserAdapterNtNtNtNtBe_4core10interfaces13user_provider12UserProvider8get_user0s8_0Be_
FN:294,_RNCNCNvXs_NtNtNtCs16bWprmmhjH_5oauth8adapters8keycloak16keycloak_adapterNtB8_19KeycloakUserAdapterNtNtNtNtBe_4core10interfaces13user_provider12UserProvider8get_user0s9_0Be_
FN:308,_RNCNCNvXs_NtNtNtCs16bWprmmhjH_5oauth8adapters8keycloak16keycloak_adapterNtB8_19KeycloakUserAdapterNtNtNtNtBe_4core10interfaces13user_provider12UserProvider8get_user0sa_0Be_
FN:326,_RNvXs_NtNtNtCs16bWprmmhjH_5oauth8adapters8keycloak16keycloak_adapterNtB4_19KeycloakUserAdapterNtNtNtNtBa_4core10interfaces13user_provider12UserProvider11update_user
FN:326,_RNCNvXs_NtNtNtCs16bWprmmhjH_5oauth8adapters8keycloak16keycloak_adapterNtB6_19KeycloakUserAdapterNtNtNtNtBc_4core10interfaces13user_provider12UserProvider11update_user0Bc_
FN:344,_RNCNCNvXs_NtNtNtCs16bWprmmhjH_5oauth8adapters8keycloak16keycloak_adapterNtB8_19KeycloakUserAdapterNtNtNtNtBe_4core10interfaces13user_provider12UserProvider11update_user00Be_
FN:345,_RNCNCNCNvXs_NtNtNtCs16bWprmmhjH_5oauth8adapters8keycloak16keycloak_adapterNtBa_19KeycloakUserAdapterNtNtNtNtBg_4core10interfaces13user_provider12UserProvider11update_user000Bg_
FN:369,_RNCNCNvXs_NtNtNtCs16bWprmmhjH_5oauth8adapters8keycloak16keycloak_adapterNtB8_19KeycloakUserAdapterNtNtNtNtBe_4core10interfaces13user_provider12UserProvider11update_user0s_0Be_
FN:370,_RNCNCNCNvXs_NtNtNtCs16bWprmmhjH_5oauth8adapters8keycloak16keycloak_adapterNtBa_19KeycloakUserAdapterNtNtNtNtBg_4core10interfaces13user_provider12UserProvider11update_user0s_00Bg_
FN:394,_RNCNCNvXs_NtNtNtCs16bWprmmhjH_5oauth8adapters8keycloak16keycloak_adapterNtB8_19KeycloakUserAdapterNtNtNtNtBe_4core10interfaces13user_provider12UserProvider11update_user0s0_0Be_
FN:395,_RNCNCNCNvXs_NtNtNtCs16bWprmmhjH_5oauth8adapters8keycloak16keycloak_adapterNtBa_19KeycloakUserAdapterNtNtNtNtBg_4core10interfaces13user_provider12UserProvider11update_user0s0_00Bg_
FN:423,_RNCNCNvXs_NtNtNtCs16bWprmmhjH_5oauth8adapters8keycloak16keycloak_adapterNtB8_19KeycloakUserAdapterNtNtNtNtBe_4core10interfaces13user_provider12UserProvider11update_user0s1_0Be_
FN:433,_RNvXs_NtNtNtCs16bWprmmhjH_5oauth8adapters8keycloak16keycloak_adapterNtB4_19KeycloakUserAdapterNtNtNtNtBa_4core10interfaces13user_provider12UserProvider15update_password
FN:433,_RNCNvXs_NtNtNtCs16bWprmmhjH_5oauth8adapters8keycloak16keycloak_adapterNtB6_19KeycloakUserAdapterNtNtNtNtBc_4core10interfaces13user_provider12UserProvider15update_password0Bc_
FN:456,_RNCNCNvXs_NtNtNtCs16bWprmmhjH_5oauth8adapters8keycloak16keycloak_adapterNtB8_19KeycloakUserAdapterNtNtNtNtBe_4core10interfaces13user_provider12UserProvider15update_password00Be_
FN:457,_RNCNCNCNvXs_NtNtNtCs16bWprmmhjH_5oauth8adapters8keycloak16keycloak_adapterNtBa_19KeycloakUserAdapterNtNtNtNtBg_4core10interfaces13user_provider12UserProvider15update_password000Bg_
FN:470,_RNCNCNvXs_NtNtNtCs16bWprmmhjH_5oauth8adapters8keycloak16keycloak_adapterNtB8_19KeycloakUserAdapterNtNtNtNtBe_4core10interfaces13user_provider12UserProvider15update_password0s_0Be_
FN:488,_RNvXs_NtNtNtCs16bWprmmhjH_5oauth8adapters8keycloak16keycloak_adapterNtB4_19KeycloakUserAdapterNtNtNtNtBa_4core10interfaces13user_provider12UserProvider11delete_user
FN:488,_RNCNvXs_NtNtNtCs16bWprmmhjH_5oauth8adapters8keycloak16keycloak_adapterNtB6_19KeycloakUserAdapterNtNtNtNtBc_4core10interfaces13user_provider12UserProvider11delete_user0Bc_
FN:507,_RNCNCNvXs_NtNtNtCs16bWprmmhjH_5oauth8adapters8keycloak16keycloak_adapterNtB8_19KeycloakUserAdapterNtNtNtNtBe_4core10interfaces13user_provider12UserProvider11delete_user00Be_
FN:508,_RNCNCNCNvXs_NtNtNtCs16bWprmmhjH_5oauth8adapters8keycloak16keycloak_adapterNtBa_19KeycloakUserAdapterNtNtNtNtBg_4core10interfaces13user_provider12UserProvider11delete_user000Bg_
FN:521,_RNCNCNvXs_NtNtNtCs16bWprmmhjH_5oauth8adapters8keycloak16keycloak_adapterNtB8_19KeycloakUserAdapterNtNtNtNtBe_4core10interfaces13user_provider12UserProvider11delete_user0s_0Be_
FN:539,_RNvXs_NtNtNtCs16bWprmmhjH_5oauth8adapters8keycloak16keycloak_adapterNtB4_19KeycloakUserAdapterNtNtNtNtBa_4core10interfaces13user_provider12UserProvider8add_role
FN:539,_RNCNvXs_NtNtNtCs16bWprmmhjH_5oauth8adapters8keycloak16keycloak_adapterNtB6_19KeycloakUserAdapterNtNtNtNtBc_4core10interfaces13user_provider12UserProvider8add_role0Bc_
FN:555,_RNCNCNvXs_NtNtNtCs16bWprmmhjH_5oauth8adapters8keycloak16keycloak_adapterNtB8_19KeycloakUserAdapterNtNtNtNtBe_4core10interfaces13user_provider12UserProvider8add_role00Be_
FN:556,_RNCNCNCNvXs_NtNtNtCs16bWprmmhjH_5oauth8adapters8keycloak16keycloak_adapterNtBa_19KeycloakUserAdapterNtNtNtNtBg_4core10interfaces13user_provider12UserProvider8add_role000Bg_
FN:584,_RNCNCNvXs_NtNtNtCs16bWprmmhjH_5oauth8adapters8keycloak16keycloak_adapterNtB8_19KeycloakUserAdapterNtNtNtNtBe_4core10interfaces13user_provider12UserProvider8add_role0s_0Be_
FN:585,_RNCNCNCNvXs_NtNtNtCs16bWprmmhjH_5oauth8adapters8keycloak16keycloak_adapterNtBa_19KeycloakUserAdapterNtNtNtNtBg_4core10interfaces13user_provider12UserProvider8add_role0s_00Bg_
FN:593,_RNCNCNvXs_NtNtNtCs16bWprmmhjH_5oauth8adapters8keycloak16keycloak_adapterNtB8_19KeycloakUserAdapterNtNtNtNtBe_4core10interfaces13user_provider12UserProvider8add_role0s0_0Be_
FN:594,_RNCNCNvXs_NtNtNtCs16bWprmmhjH_5oauth8adapters8keycloak16keycloak_adapterNtB8_19KeycloakUserAdapterNtNtNtNtBe_4core10interfaces13user_provider12UserProvider8add_role0s1_0Be_
FN:595,_RNCNCNvXs_NtNtNtCs16bWprmmhjH_5oauth8adapters8keycloak16keycloak_adapterNtB8_19KeycloakUserAdapterNtNtNtNtBe_4core10interfaces13user_provider12UserProvider8add_role0s2_0Be_
FN:597,_RNCNCNCNvXs_NtNtNtCs16bWprmmhjH_5oauth8adapters8keycloak16keycloak_adapterNtBa_19KeycloakUserAdapterNtNtNtNtBg_4core10interfaces13user_provider12UserProvider8add_role0s2_00Bg_
FN:597,_RNCNCNCNCNvXs_NtNtNtCs16bWprmmhjH_5oauth8adapters8keycloak16keycloak_adapterNtBc_19KeycloakUserAdapterNtNtNtNtBi_4core10interfaces13user_provider12UserProvider8add_role0s2_000Bi_
FN:617,_RNCNCNvXs_NtNtNtCs16bWprmmhjH_5oauth8adapters8keycloak16keycloak_adapterNtB8_19KeycloakUserAdapterNtNtNtNtBe_4core10interfaces13user_provider12UserProvider8add_role0s5_0Be_
FN:618,_RNCNCNvXs_NtNtNtCs16bWprmmhjH_5oauth8adapters8keycloak16keycloak_adapterNtB8_19KeycloakUserAdapterNtNtNtNtBe_4core10interfaces13user_provider12UserProvider8add_role0s6_0Be_
FN:627,_RNCNCNvXs_NtNtNtCs16bWprmmhjH_5oauth8adapters8keycloak16keycloak_adapterNtB8_19KeycloakUserAdapterNtNtNtNtBe_4core10interfaces13user_provider12UserProvider8add_role0s3_0Be_
FN:628,_RNCNCNCNvXs_NtNtNtCs16bWprmmhjH_5oauth8adapters8keycloak16keycloak_adapterNtBa_19KeycloakUserAdapterNtNtNtNtBg_4core10interfaces13user_provider12UserProvider8add_role0s3_00Bg_
FN:644,_RNCNCNvXs_NtNtNtCs16bWprmmhjH_5oauth8adapters8keycloak16keycloak_adapterNtB8_19KeycloakUserAdapterNtNtNtNtBe_4core10interfaces13user_provider12UserProvider8add_role0s4_0Be_
FN:654,_RNvXs_NtNtNtCs16bWprmmhjH_5oauth8adapters8keycloak16keycloak_adapterNtB4_19KeycloakUserAdapterNtNtNtNtBa_4core10interfaces13user_provider12UserProvider11remove_role
FN:654,_RNCNvXs_NtNtNtCs16bWprmmhjH_5oauth8adapters8keycloak16keycloak_adapterNtB6_19KeycloakUserAdapterNtNtNtNtBc_4core10interfaces13user_provider12UserProvider11remove_role0Bc_
FN:670,_RNCNCNvXs_NtNtNtCs16bWprmmhjH_5oauth8adapters8keycloak16keycloak_adapterNtB8_19KeycloakUserAdapterNtNtNtNtBe_4core10interfaces13user_provider12UserProvider11remove_role00Be_
FN:671,_RNCNCNCNvXs_NtNtNtCs16bWprmmhjH_5oauth8adapters8keycloak16keycloak_adapterNtBa_19KeycloakUserAdapterNtNtNtNtBg_4core10interfaces13user_provider12UserProvider11remove_role000Bg_
FN:699,_RNCNCNvXs_NtNtNtCs16bWprmmhjH_5oauth8adapters8keycloak16keycloak_adapterNtB8_19KeycloakUserAdapterNtNtNtNtBe_4core10interfaces13user_provider12UserProvider11remove_role0s_0Be_
FN:700,_RNCNCNCNvXs_NtNtNtCs16bWprmmhjH_5oauth8adapters8keycloak16keycloak_adapterNtBa_19KeycloakUserAdapterNtNtNtNtBg_4core10interfaces13user_provider12UserProvider11remove_role0s_00Bg_
FN:716,_RNCNCNvXs_NtNtNtCs16bWprmmhjH_5oauth8adapters8keycloak16keycloak_adapterNtB8_19KeycloakUserAdapterNtNtNtNtBe_4core10interfaces13user_provider12UserProvider11remove_role0s2_0Be_
FN:717,_RNCNCNvXs_NtNtNtCs16bWprmmhjH_5oauth8adapters8keycloak16keycloak_adapterNtB8_19KeycloakUserAdapterNtNtNtNtBe_4core10interfaces13user_provider12UserProvider11remove_role0s3_0Be_
FN:726,_RNCNCNvXs_NtNtNtCs16bWprmmhjH_5oauth8adapters8keycloak16keycloak_adapterNtB8_19KeycloakUserAdapterNtNtNtNtBe_4core10interfaces13user_provider12UserProvider11remove_role0s0_0Be_
FN:727,_RNCNCNCNvXs_NtNtNtCs16bWprmmhjH_5oauth8adapters8keycloak16keycloak_adapterNtBa_19KeycloakUserAdapterNtNtNtNtBg_4core10interfaces13user_provider12UserProvider11remove_role0s0_00Bg_
FN:743,_RNCNCNvXs_NtNtNtCs16bWprmmhjH_5oauth8adapters8keycloak16keycloak_adapterNtB8_19KeycloakUserAdapterNtNtNtNtBe_4core10interfaces13user_provider12UserProvider11remove_role0s1_0Be_
FN:756,_RNvXs0_NtNtNtCs16bWprmmhjH_5oauth8adapters8keycloak16keycloak_adapterNtB5_19KeycloakRoleAdapterNtNtNtNtBb_4core10interfaces13role_provider12RoleProvider11create_role
FN:756,_RNCNvXs0_NtNtNtCs16bWprmmhjH_5oauth8adapters8keycloak16keycloak_adapterNtB7_19KeycloakRoleAdapterNtNtNtNtBd_4core10interfaces13role_provider12RoleProvider11create_role0Bd_
FN:772,_RNCNCNvXs0_NtNtNtCs16bWprmmhjH_5oauth8adapters8keycloak16keycloak_adapterNtB9_19KeycloakRoleAdapterNtNtNtNtBf_4core10interfaces13role_provider12RoleProvider11create_role00Bf_
FN:773,_RNCNCNCNvXs0_NtNtNtCs16bWprmmhjH_5oauth8adapters8keycloak16keycloak_adapterNtBb_19KeycloakRoleAdapterNtNtNtNtBh_4core10interfaces13role_provider12RoleProvider11create_role000Bh_
FN:784,_RNCNCNvXs0_NtNtNtCs16bWprmmhjH_5oauth8adapters8keycloak16keycloak_adapterNtB9_19KeycloakRoleAdapterNtNtNtNtBf_4core10interfaces13role_provider12RoleProvider11create_role0s_0Bf_
FN:798,_RNCNCNvXs0_NtNtNtCs16bWprmmhjH_5oauth8adapters8keycloak16keycloak_adapterNtB9_19KeycloakRoleAdapterNtNtNtNtBf_4core10interfaces13role_provider12RoleProvider11create_role0s0_0Bf_
FN:808,_RNvXs0_NtNtNtCs16bWprmmhjH_5oauth8adapters8keycloak16keycloak_adapterNtB5_19KeycloakRoleAdapterNtNtNtNtBb_4core10interfaces13role_provider12RoleProvider9get_roles
FN:808,_RNCNvXs0_NtNtNtCs16bWprmmhjH_5oauth8adapters8keycloak16keycloak_adapterNtB7_19KeycloakRoleAdapterNtNtNtNtBd_4core10interfaces13role_provider12RoleProvider9get_roles0Bd_
FN:823,_RNCNCNvXs0_NtNtNtCs16bWprmmhjH_5oauth8adapters8keycloak16keycloak_adapterNtB9_19KeycloakRoleAdapterNtNtNtNtBf_4core10interfaces13role_provider12RoleProvider9get_roles00Bf_
FN:824,_RNCNCNCNvXs0_NtNtNtCs16bWprmmhjH_5oauth8adapters8keycloak16keycloak_adapterNtBb_19KeycloakRoleAdapterNtNtNtNtBh_4core10interfaces13role_provider12RoleProvider9get_roles000Bh_
FN:832,_RNCNCNvXs0_NtNtNtCs16bWprmmhjH_5oauth8adapters8keycloak16keycloak_adapterNtB9_19KeycloakRoleAdapterNtNtNtNtBf_4core10interfaces13role_provider12RoleProvider9get_roles0s_0Bf_
FN:834,_RNCNCNCNvXs0_NtNtNtCs16bWprmmhjH_5oauth8adapters8keycloak16keycloak_adapterNtBb_19KeycloakRoleAdapterNtNtNtNtBh_4core10interfaces13role_provider12RoleProvider9get_roles0s_00Bh_
FN:842,_RNCNCNvXs0_NtNtNtCs16bWprmmhjH_5oauth8adapters8keycloak16keycloak_adapterNtB9_19KeycloakRoleAdapterNtNtNtNtBf_4core10interfaces13role_provider12RoleProvider9get_roles0s0_0Bf_
FN:845,_RNCNCNCNvXs0_NtNtNtCs16bWprmmhjH_5oauth8adapters8keycloak16keycloak_adapterNtBb_19KeycloakRoleAdapterNtNtNtNtBh_4core10interfaces13role_provider12RoleProvider9get_roles0s0_00Bh_
FN:846,_RNCNCNCNvXs0_NtNtNtCs16bWprmmhjH_5oauth8adapters8keycloak16keycloak_adapterNtBb_19KeycloakRoleAdapterNtNtNtNtBh_4core10interfaces13role_provider12RoleProvider9get_roles0s0_0s_0Bh_
FN:847,_RNCNCNCNvXs0_NtNtNtCs16bWprmmhjH_5oauth8adapters8keycloak16keycloak_adapterNtBb_19KeycloakRoleAdapterNtNtNtNtBh_4core10interfaces13role_provider12RoleProvider9get_roles0s0_0s0_0Bh_
FN:849,_RNCNCNCNCNvXs0_NtNtNtCs16bWprmmhjH_5oauth8adapters8keycloak16keycloak_adapterNtBd_19KeycloakRoleAdapterNtNtNtNtBj_4core10interfaces13role_provider12RoleProvider9get_roles0s0_0s0_00Bj_
FN:849,_RNCNCNCNCNCNvXs0_NtNtNtCs16bWprmmhjH_5oauth8adapters8keycloak16keycloak_adapterNtBf_19KeycloakRoleAdapterNtNtNtNtBl_4core10interfaces13role_provider12RoleProvider9get_roles0s0_0s0_000Bl_
FN:855,_RNCNCNvXs0_NtNtNtCs16bWprmmhjH_5oauth8adapters8keycloak16keycloak_adapterNtB9_19KeycloakRoleAdapterNtNtNtNtBf_4core10interfaces13role_provider12RoleProvider9get_roles0s1_0Bf_
FN:856,_RNCNCNCNvXs0_NtNtNtCs16bWprmmhjH_5oauth8adapters8keycloak16keycloak_adapterNtBb_19KeycloakRoleAdapterNtNtNtNtBh_4core10interfaces13role_provider12RoleProvider9get_roles0s1_00Bh_
FN:857,_RNCNCNCNvXs0_NtNtNtCs16bWprmmhjH_5oauth8adapters8keycloak16keycloak_adapterNtBb_19KeycloakRoleAdapterNtNtNtNtBh_4core10interfaces13role_provider12RoleProvider9get_roles0s1_0s_0Bh_
FN:858,_RNCNCNCNvXs0_NtNtNtCs16bWprmmhjH_5oauth8adapters8keycloak16keycloak_adapterNtBb_19KeycloakRoleAdapterNtNtNtNtBh_4core10interfaces13role_provider12RoleProvider9get_roles0s1_0s0_0Bh_
FN:867,_RNCNCNvXs0_NtNtNtCs16bWprmmhjH_5oauth8adapters8keycloak16keycloak_adapterNtB9_19KeycloakRoleAdapterNtNtNtNtBf_4core10interfaces13role_provider12RoleProvider9get_roles0s2_0Bf_
FN:877,_RNvXs0_NtNtNtCs16bWprmmhjH_5oauth8adapters8keycloak16keycloak_adapterNtB5_19KeycloakRoleAdapterNtNtNtNtBb_4core10interfaces13role_provider12RoleProvider8get_role
FN:877,_RNCNvXs0_NtNtNtCs16bWprmmhjH_5oauth8adapters8keycloak16keycloak_adapterNtB7_19KeycloakRoleAdapterNtNtNtNtBd_4core10interfaces13role_provider12RoleProvider8get_role0Bd_
FN:893,_RNCNCNvXs0_NtNtNtCs16bWprmmhjH_5oauth8adapters8keycloak16keycloak_adapterNtB9_19KeycloakRoleAdapterNtNtNtNtBf_4core10interfaces13role_provider12RoleProvider8get_role00Bf_
FN:894,_RNCNCNCNvXs0_NtNtNtCs16bWprmmhjH_5oauth8adapters8keycloak16keycloak_adapterNtBb_19KeycloakRoleAdapterNtNtNtNtBh_4core10interfaces13role_provider12RoleProvider8get_role000Bh_
FN:902,_RNCNCNvXs0_NtNtNtCs16bWprmmhjH_5oauth8adapters8keycloak16keycloak_adapterNtB9_19KeycloakRoleAdapterNtNtNtNtBf_4core10interfaces13role_provider12RoleProvider8get_role0s_0Bf_
FN:904,_RNCNCNCNvXs0_NtNtNtCs16bWprmmhjH_5oauth8adapters8keycloak16keycloak_adapterNtBb_19KeycloakRoleAdapterNtNtNtNtBh_4core10interfaces13role_provider12RoleProvider8get_role0s_00Bh_
FN:912,_RNCNCNvXs0_NtNtNtCs16bWprmmhjH_5oauth8adapters8keycloak16keycloak_adapterNtB9_19KeycloakRoleAdapterNtNtNtNtBf_4core10interfaces13role_provider12RoleProvider8get_role0s0_0Bf_
FN:913,_RNCNCNvXs0_NtNtNtCs16bWprmmhjH_5oauth8adapters8keycloak16keycloak_adapterNtB9_19KeycloakRoleAdapterNtNtNtNtBf_4core10interfaces13role_provider12RoleProvider8get_role0s1_0Bf_
FN:914,_RNCNCNvXs0_NtNtNtCs16bWprmmhjH_5oauth8adapters8keycloak16keycloak_adapterNtB9_19KeycloakRoleAdapterNtNtNtNtBf_4core10interfaces13role_provider12RoleProvider8get_role0s2_0Bf_
FN:916,_RNCNCNCNvXs0_NtNtNtCs16bWprmmhjH_5oauth8adapters8keycloak16keycloak_adapterNtBb_19KeycloakRoleAdapterNtNtNtNtBh_4core10interfaces13role_provider12RoleProvider8get_role0s2_00Bh_
FN:916,_RNCNCNCNCNvXs0_NtNtNtCs16bWprmmhjH_5oauth8adapters8keycloak16keycloak_adapterNtBd_19KeycloakRoleAdapterNtNtNtNtBj_4core10interfaces13role_provider12RoleProvider8get_role0s2_000Bj_
FN:929,_RNCNCNvXs0_NtNtNtCs16bWprmmhjH_5oauth8adapters8keycloak16keycloak_adapterNtB9_19KeycloakRoleAdapterNtNtNtNtBf_4core10interfaces13role_provider12RoleProvider8get_role0s3_0Bf_
FN:930,_RNCNCNvXs0_NtNtNtCs16bWprmmhjH_5oauth8adapters8keycloak16keycloak_adapterNtB9_19KeycloakRoleAdapterNtNtNtNtBf_4core10interfaces13role_provider12RoleProvider8get_role0s4_0Bf_
FN:931,_RNCNCNvXs0_NtNtNtCs16bWprmmhjH_5oauth8adapters8keycloak16keycloak_adapterNtB9_19KeycloakRoleAdapterNtNtNtNtBf_4core10interfaces13role_provider12RoleProvider8get_role0s5_0Bf_
FN:943,_RNCNCNvXs0_NtNtNtCs16bWprmmhjH_5oauth8adapters8keycloak16keycloak_adapterNtB9_19KeycloakRoleAdapterNtNtNtNtBf_4core10interfaces13role_provider12RoleProvider8get_role0s6_0Bf_
FN:953,_RNvXs0_NtNtNtCs16bWprmmhjH_5oauth8adapters8keycloak16keycloak_adapterNtB5_19KeycloakRoleAdapterNtNtNtNtBb_4core10interfaces13role_provider12RoleProvider11update_role
FN:953,_RNCNvXs0_NtNtNtCs16bWprmmhjH_5oauth8adapters8keycloak16keycloak_adapterNtB7_19KeycloakRoleAdapterNtNtNtNtBd_4core10interfaces13role_provider12RoleProvider11update_role0Bd_
FN:970,_RNCNCNvXs0_NtNtNtCs16bWprmmhjH_5oauth8adapters8keycloak16keycloak_adapterNtB9_19KeycloakRoleAdapterNtNtNtNtBf_4core10interfaces13role_provider12RoleProvider11update_role00Bf_
FN:971,_RNCNCNCNvXs0_NtNtNtCs16bWprmmhjH_5oauth8adapters8keycloak16keycloak_adapterNtBb_19KeycloakRoleAdapterNtNtNtNtBh_4core10interfaces13role_provider12RoleProvider11update_role000Bh_
FN:992,_RNCNCNvXs0_NtNtNtCs16bWprmmhjH_5oauth8adapters8keycloak16keycloak_adapterNtB9_19KeycloakRoleAdapterNtNtNtNtBf_4core10interfaces13role_provider12RoleProvider11update_role0s_0Bf_
FN:1002,_RNvXs0_NtNtNtCs16bWprmmhjH_5oauth8adapters8keycloak16keycloak_adapterNtB5_19KeycloakRoleAdapterNtNtNtNtBb_4core10interfaces13role_provider12RoleProvider10patch_role
FN:1002,_RNCNvXs0_NtNtNtCs16bWprmmhjH_5oauth8adapters8keycloak16keycloak_adapterNtB7_19KeycloakRoleAdapterNtNtNtNtBd_4core10interfaces13role_provider12RoleProvider10patch_role0Bd_
FN:1019,_RNCNCNvXs0_NtNtNtCs16bWprmmhjH_5oauth8adapters8keycloak16keycloak_adapterNtB9_19KeycloakRoleAdapterNtNtNtNtBf_4core10interfaces13role_provider12RoleProvider10patch_role00Bf_
FN:1020,_RNCNCNCNvXs0_NtNtNtCs16bWprmmhjH_5oauth8adapters8keycloak16keycloak_adapterNtBb_19KeycloakRoleAdapterNtNtNtNtBh_4core10interfaces13role_provider12RoleProvider10patch_role000Bh_
FN:1039,_RNCNCNvXs0_NtNtNtCs16bWprmmhjH_5oauth8adapters8keycloak16keycloak_adapterNtB9_19KeycloakRoleAdapterNtNtNtNtBf_4core10interfaces13role_provider12RoleProvider10patch_role0s_0Bf_
FN:1049,_RNvXs0_NtNtNtCs16bWprmmhjH_5oauth8adapters8keycloak16keycloak_adapterNtB5_19KeycloakRoleAdapterNtNtNtNtBb_4core10interfaces13role_provider12RoleProvider11delete_role
FN:1049,_RNCNvXs0_NtNtNtCs16bWprmmhjH_5oauth8adapters8keycloak16keycloak_adapterNtB7_19KeycloakRoleAdapterNtNtNtNtBd_4core10interfaces13role_provider12RoleProvider11delete_role0Bd_
FN:1065,_RNCNCNvXs0_NtNtNtCs16bWprmmhjH_5oauth8adapters8keycloak16keycloak_adapterNtB9_19KeycloakRoleAdapterNtNtNtNtBf_4core10interfaces13role_provider12RoleProvider11delete_role00Bf_
FN:1066,_RNCNCNCNvXs0_NtNtNtCs16bWprmmhjH_5oauth8adapters8keycloak16keycloak_adapterNtBb_19KeycloakRoleAdapterNtNtNtNtBh_4core10interfaces13role_provider12RoleProvider11delete_role000Bh_
FN:1082,_RNCNCNvXs0_NtNtNtCs16bWprmmhjH_5oauth8adapters8keycloak16keycloak_adapterNtB9_19KeycloakRoleAdapterNtNtNtNtBf_4core10interfaces13role_provider12RoleProvider11delete_role0s_0Bf_
FNDA:0,_RNCNvXNtNtNtCskY3J53qhLT7_5oauth8adapters8keycloak16keycloak_adapterNtB4_19KeycloakAuthAdapterNtNtNtNtBa_4core10interfaces13auth_provider12AuthProvider5login0Ba_
FNDA:0,_RNCNCNvXNtNtNtCskY3J53qhLT7_5oauth8adapters8keycloak16keycloak_adapterNtB6_19KeycloakAuthAdapterNtNtNtNtBc_4core10interfaces13auth_provider12AuthProvider5login00Bc_
FNDA:0,_RNCNCNCNvXNtNtNtCskY3J53qhLT7_5oauth8adapters8keycloak16keycloak_adapterNtB8_19KeycloakAuthAdapterNtNtNtNtBe_4core10interfaces13auth_provider12AuthProvider5login000Be_
FNDA:0,_RNCNCNvXNtNtNtCskY3J53qhLT7_5oauth8adapters8keycloak16keycloak_adapterNtB6_19KeycloakAuthAdapterNtNtNtNtBc_4core10interfaces13auth_provider12AuthProvider5login0s_0Bc_
FNDA:0,_RNCNCNCNvXNtNtNtCskY3J53qhLT7_5oauth8adapters8keycloak16keycloak_adapterNtB8_19KeycloakAuthAdapterNtNtNtNtBe_4core10interfaces13auth_provider12AuthProvider5login0s_00Be_
FNDA:0,_RNCNCNvXNtNtNtCskY3J53qhLT7_5oauth8adapters8keycloak16keycloak_adapterNtB6_19KeycloakAuthAdapterNtNtNtNtBc_4core10interfaces13auth_provider12AuthProvider5login0s0_0Bc_
FNDA:0,_RNCNvXs_NtNtNtCskY3J53qhLT7_5oauth8adapters8keycloak16keycloak_adapterNtB6_19KeycloakUserAdapterNtNtNtNtBc_4core10interfaces13user_provider12UserProvider11create_user0Bc_
FNDA:0,_RNCNCNvXs_NtNtNtCskY3J53qhLT7_5oauth8adapters8keycloak16keycloak_adapterNtB8_19KeycloakUserAdapterNtNtNtNtBe_4core10interfaces13user_provider12UserProvider11create_user00Be_
FNDA:0,_RNCNCNCNvXs_NtNtNtCskY3J53qhLT7_5oauth8adapters8keycloak16keycloak_adapterNtBa_19KeycloakUserAdapterNtNtNtNtBg_4core10interfaces13user_provider12UserProvider11create_user000Bg_
FNDA:0,_RNCNCNvXs_NtNtNtCskY3J53qhLT7_5oauth8adapters8keycloak16keycloak_adapterNtB8_19KeycloakUserAdapterNtNtNtNtBe_4core10interfaces13user_provider12UserProvider11create_user0s_0Be_
FNDA:0,_RNCNCNvXs_NtNtNtCskY3J53qhLT7_5oauth8adapters8keycloak16keycloak_adapterNtB8_19KeycloakUserAdapterNtNtNtNtBe_4core10interfaces13user_provider12UserProvider11create_user0s0_0Be_
FNDA:0,_RNCNCNvXs_NtNtNtCskY3J53qhLT7_5oauth8adapters8keycloak16keycloak_adapterNtB8_19KeycloakUserAdapterNtNtNtNtBe_4core10interfaces13user_provider12UserProvider11create_user0s1_0Be_
FNDA:0,_RNCNvXs_NtNtNtCskY3J53qhLT7_5oauth8adapters8keycloak16keycloak_adapterNtB6_19KeycloakUserAdapterNtNtNtNtBc_4core10interfaces13user_provider12UserProvider9get_users0Bc_
FNDA:0,_RNCNCNvXs_NtNtNtCskY3J53qhLT7_5oauth8adapters8keycloak16keycloak_adapterNtB8_19KeycloakUserAdapterNtNtNtNtBe_4core10interfaces13user_provider12UserProvider9get_users00Be_
FNDA:0,_RNCNCNCNvXs_NtNtNtCskY3J53qhLT7_5oauth8adapters8keycloak16keycloak_adapterNtBa_19KeycloakUserAdapterNtNtNtNtBg_4core10interfaces13user_provider12UserProvider9get_users000Bg_
FNDA:0,_RNCNCNvXs_NtNtNtCskY3J53qhLT7_5oauth8adapters8keycloak16keycloak_adapterNtB8_19KeycloakUserAdapterNtNtNtNtBe_4core10interfaces13user_provider12UserProvider9get_users0s_0Be_
FNDA:0,_RNCNCNCNvXs_NtNtNtCskY3J53qhLT7_5oauth8adapters8keycloak16keycloak_adapterNtBa_19KeycloakUserAdapterNtNtNtNtBg_4core10interfaces13user_provider12UserProvider9get_users0s_00Bg_
FNDA:0,_RNCNCNvXs_NtNtNtCskY3J53qhLT7_5oauth8adapters8keycloak16keycloak_adapterNtB8_19KeycloakUserAdapterNtNtNtNtBe_4core10interfaces13user_provider12UserProvider9get_users0s0_0Be_
FNDA:0,_RNCNCNCNvXs_NtNtNtCskY3J53qhLT7_5oauth8adapters8keycloak16keycloak_adapterNtBa_19KeycloakUserAdapterNtNtNtNtBg_4core10interfaces13user_provider12UserProvider9get_users0s0_00Bg_
FNDA:0,_RNCNCNCNvXs_NtNtNtCskY3J53qhLT7_5oauth8adapters8keycloak16keycloak_adapterNtBa_19KeycloakUserAdapterNtNtNtNtBg_4core10interfaces13user_provider12UserProvider9get_users0s0_0s_0Bg_
FNDA:0,_RNCNCNCNvXs_NtNtNtCskY3J53qhLT7_5oauth8adapters8keycloak16keycloak_adapterNtBa_19KeycloakUserAdapterNtNtNtNtBg_4core10interfaces13user_provider12UserProvider9get_users0s0_0s0_0Bg_
FNDA:0,_RNCNCNCNCNvXs_NtNtNtCskY3J53qhLT7_5oauth8adapters8keycloak16keycloak_adapterNtBc_19KeycloakUserAdapterNtNtNtNtBi_4core10interfaces13user_provider12UserProvider9get_users0s0_0s0_00Bi_
FNDA:0,_RNCNCNCNvXs_NtNtNtCskY3J53qhLT7_5oauth8adapters8keycloak16keycloak_adapterNtBa_19KeycloakUserAdapterNtNtNtNtBg_4core10interfaces13user_provider12UserProvider9get_users0s0_0s1_0Bg_
FNDA:0,_RNCNCNCNvXs_NtNtNtCskY3J53qhLT7_5oauth8adapters8keycloak16keycloak_adapterNtBa_19KeycloakUserAdapterNtNtNtNtBg_4core10interfaces13user_provider12UserProvider9get_users0s0_0s2_0Bg_
FNDA:0,_RNCNCNCNvXs_NtNtNtCskY3J53qhLT7_5oauth8adapters8keycloak16keycloak_adapterNtBa_19KeycloakUserAdapterNtNtNtNtBg_4core10interfaces13user_provider12UserProvider9get_users0s0_0s3_0Bg_
FNDA:0,_RNCNCNCNvXs_NtNtNtCskY3J53qhLT7_5oauth8adapters8keycloak16keycloak_adapterNtBa_19KeycloakUserAdapterNtNtNtNtBg_4core10interfaces13user_provider12UserProvider9get_users0s0_0s4_0Bg_
FNDA:0,_RNCNCNCNvXs_NtNtNtCskY3J53qhLT7_5oauth8adapters8keycloak16keycloak_adapterNtBa_19KeycloakUserAdapterNtNtNtNtBg_4core10interfaces13user_provider12UserProvider9get_users0s0_0s5_0Bg_
FNDA:0,_RNCNCNCNvXs_NtNtNtCskY3J53qhLT7_5oauth8adapters8keycloak16keycloak_adapterNtBa_19KeycloakUserAdapterNtNtNtNtBg_4core10interfaces13user_provider12UserProvider9get_users0s0_0s6_0Bg_
FNDA:0,_RNCNCNCNvXs_NtNtNtCskY3J53qhLT7_5oauth8adapters8keycloak16keycloak_adapterNtBa_19KeycloakUserAdapterNtNtNtNtBg_4core10interfaces13user_provider12UserProvider9get_users0s0_0s7_0Bg_
FNDA:0,_RNCNCNvXs_NtNtNtCskY3J53qhLT7_5oauth8adapters8keycloak16keycloak_adapterNtB8_19KeycloakUserAdapterNtNtNtNtBe_4core10interfaces13user_provider12UserProvider9get_users0s1_0Be_
FNDA:0,_RNCNvXs_NtNtNtCskY3J53qhLT7_5oauth8adapters8keycloak16keycloak_adapterNtB6_19KeycloakUserAdapterNtNtNtNtBc_4core10interfaces13user_provider12UserProvider8get_user0Bc_
FNDA:0,_RNCNCNvXs_NtNtNtCskY3J53qhLT7_5oauth8adapters8keycloak16keycloak_adapterNtB8_19KeycloakUserAdapterNtNtNtNtBe_4core10interfaces13user_provider12UserProvider8get_user00Be_
FNDA:0,_RNCNCNCNvXs_NtNtNtCskY3J53qhLT7_5oauth8adapters8keycloak16keycloak_adapterNtBa_19KeycloakUserAdapterNtNtNtNtBg_4core10interfaces13user_provider12UserProvider8get_user000Bg_
FNDA:0,_RNCNCNvXs_NtNtNtCskY3J53qhLT7_5oauth8adapters8keycloak16keycloak_adapterNtB8_19KeycloakUserAdapterNtNtNtNtBe_4core10interfaces13user_provider12UserProvider8get_user0s_0Be_
FNDA:0,_RNCNCNCNvXs_NtNtNtCskY3J53qhLT7_5oauth8adapters8keycloak16keycloak_adapterNtBa_19KeycloakUserAdapterNtNtNtNtBg_4core10interfaces13user_provider12UserProvider8get_user0s_00Bg_
FNDA:0,_RNCNCNvXs_NtNtNtCskY3J53qhLT7_5oauth8adapters8keycloak16keycloak_adapterNtB8_19KeycloakUserAdapterNtNtNtNtBe_4core10interfaces13user_provider12UserProvider8get_user0s0_0Be_
FNDA:0,_RNCNCNvXs_NtNtNtCskY3J53qhLT7_5oauth8adapters8keycloak16keycloak_adapterNtB8_19KeycloakUserAdapterNtNtNtNtBe_4core10interfaces13user_provider12UserProvider8get_user0s1_0Be_
FNDA:0,_RNCNCNvXs_NtNtNtCskY3J53qhLT7_5oauth8adapters8keycloak16keycloak_adapterNtB8_19KeycloakUserAdapterNtNtNtNtBe_4core10interfaces13user_provider12UserProvider8get_user0s2_0Be_
FNDA:0,_RNCNCNCNvXs_NtNtNtCskY3J53qhLT7_5oauth8adapters8keycloak16keycloak_adapterNtBa_19KeycloakUserAdapterNtNtNtNtBg_4core10interfaces13user_provider12UserProvider8get_user0s2_00Bg_
FNDA:0,_RNCNCNvXs_NtNtNtCskY3J53qhLT7_5oauth8adapters8keycloak16keycloak_adapterNtB8_19KeycloakUserAdapterNtNtNtNtBe_4core10interfaces13user_provider12UserProvider8get_user0s3_0Be_
FNDA:0,_RNCNCNvXs_NtNtNtCskY3J53qhLT7_5oauth8adapters8keycloak16keycloak_adapterNtB8_19KeycloakUserAdapterNtNtNtNtBe_4core10interfaces13user_provider12UserProvider8get_user0s4_0Be_
FNDA:0,_RNCNCNvXs_NtNtNtCskY3J53qhLT7_5oauth8adapters8keycloak16keycloak_adapterNtB8_19KeycloakUserAdapterNtNtNtNtBe_4core10interfaces13user_provider12UserProvider8get_user0s5_0Be_
FNDA:0,_RNCNCNvXs_NtNtNtCskY3J53qhLT7_5oauth8adapters8keycloak16keycloak_adapterNtB8_19KeycloakUserAdapterNtNtNtNtBe_4core10interfaces13user_provider12UserProvider8get_user0s6_0Be_
FNDA:0,_RNCNCNvXs_NtNtNtCskY3J53qhLT7_5oauth8adapters8keycloak16keycloak_adapterNtB8_19KeycloakUserAdapterNtNtNtNtBe_4core10interfaces13user_provider12UserProvider8get_user0s7_0Be_
FNDA:0,_RNCNCNvXs_NtNtNtCskY3J53qhLT7_5oauth8adapters8keycloak16keycloak_adapterNtB8_19KeycloakUserAdapterNtNtNtNtBe_4core10interfaces13user_provider12UserProvider8get_user0s8_0Be_
FNDA:0,_RNCNCNvXs_NtNtNtCskY3J53qhLT7_5oauth8adapters8keycloak16keycloak_adapterNtB8_19KeycloakUserAdapterNtNtNtNtBe_4core10interfaces13user_provider12UserProvider8get_user0s9_0Be_
FNDA:0,_RNCNCNvXs_NtNtNtCskY3J53qhLT7_5oauth8adapters8keycloak16keycloak_adapterNtB8_19KeycloakUserAdapterNtNtNtNtBe_4core10interfaces13user_provider12UserProvider8get_user0sa_0Be_
FNDA:0,_RNCNvXs_NtNtNtCskY3J53qhLT7_5oauth8adapters8keycloak16keycloak_adapterNtB6_19KeycloakUserAdapterNtNtNtNtBc_4core10interfaces13user_provider12UserProvider11update_user0Bc_
FNDA:0,_RNCNCNvXs_NtNtNtCskY3J53qhLT7_5oauth8adapters8keycloak16keycloak_adapterNtB8_19KeycloakUserAdapterNtNtNtNtBe_4core10interfaces13user_provider12UserProvider11update_user00Be_
FNDA:0,_RNCNCNCNvXs_NtNtNtCskY3J53qhLT7_5oauth8adapters8keycloak16keycloak_adapterNtBa_19KeycloakUserAdapterNtNtNtNtBg_4core10interfaces13user_provider12UserProvider11update_user000Bg_
FNDA:0,_RNCNCNvXs_NtNtNtCskY3J53qhLT7_5oauth8adapters8keycloak16keycloak_adapterNtB8_19KeycloakUserAdapterNtNtNtNtBe_4core10interfaces13user_provider12UserProvider11update_user0s_0Be_
FNDA:0,_RNCNCNCNvXs_NtNtNtCskY3J53qhLT7_5oauth8adapters8keycloak16keycloak_adapterNtBa_19KeycloakUserAdapterNtNtNtNtBg_4core10interfaces13user_provider12UserProvider11update_user0s_00Bg_
FNDA:0,_RNCNCNvXs_NtNtNtCskY3J53qhLT7_5oauth8adapters8keycloak16keycloak_adapterNtB8_19KeycloakUserAdapterNtNtNtNtBe_4core10interfaces13user_provider12UserProvider11update_user0s0_0Be_
FNDA:0,_RNCNCNCNvXs_NtNtNtCskY3J53qhLT7_5oauth8adapters8keycloak16keycloak_adapterNtBa_19KeycloakUserAdapterNtNtNtNtBg_4core10interfaces13user_provider12UserProvider11update_user0s0_00Bg_
FNDA:0,_RNCNCNvXs_NtNtNtCskY3J53qhLT7_5oauth8adapters8keycloak16keycloak_adapterNtB8_19KeycloakUserAdapterNtNtNtNtBe_4core10interfaces13user_provider12UserProvider11update_user0s1_0Be_
FNDA:0,_RNCNvXs_NtNtNtCskY3J53qhLT7_5oauth8adapters8keycloak16keycloak_adapterNtB6_19KeycloakUserAdapterNtNtNtNtBc_4core10interfaces13user_provider12UserProvider15update_password0Bc_
FNDA:0,_RNCNCNvXs_NtNtNtCskY3J53qhLT7_5oauth8adapters8keycloak16keycloak_adapterNtB8_19KeycloakUserAdapterNtNtNtNtBe_4core10interfaces13user_provider12UserProvider15update_password00Be_
FNDA:0,_RNCNCNCNvXs_NtNtNtCskY3J53qhLT7_5oauth8adapters8keycloak16keycloak_adapterNtBa_19KeycloakUserAdapterNtNtNtNtBg_4core10interfaces13user_provider12UserProvider15update_password000Bg_
FNDA:0,_RNCNCNvXs_NtNtNtCskY3J53qhLT7_5oauth8adapters8keycloak16keycloak_adapterNtB8_19KeycloakUserAdapterNtNtNtNtBe_4core10interfaces13user_provider12UserProvider15update_password0s_0Be_
FNDA:0,_RNCNvXs_NtNtNtCskY3J53qhLT7_5oauth8adapters8keycloak16keycloak_adapterNtB6_19KeycloakUserAdapterNtNtNtNtBc_4core10interfaces13user_provider12UserProvider11delete_user0Bc_
FNDA:0,_RNCNCNvXs_NtNtNtCskY3J53qhLT7_5oauth8adapters8keycloak16keycloak_adapterNtB8_19KeycloakUserAdapterNtNtNtNtBe_4core10interfaces13user_provider12UserProvider11delete_user00Be_
FNDA:0,_RNCNCNCNvXs_NtNtNtCskY3J53qhLT7_5oauth8adapters8keycloak16keycloak_adapterNtBa_19KeycloakUserAdapterNtNtNtNtBg_4core10interfaces13user_provider12UserProvider11delete_user000Bg_
FNDA:0,_RNCNCNvXs_NtNtNtCskY3J53qhLT7_5oauth8adapters8keycloak16keycloak_adapterNtB8_19KeycloakUserAdapterNtNtNtNtBe_4core10interfaces13user_provider12UserProvider11delete_user0s_0Be_
FNDA:0,_RNCNvXs_NtNtNtCskY3J53qhLT7_5oauth8adapters8keycloak16keycloak_adapterNtB6_19KeycloakUserAdapterNtNtNtNtBc_4core10interfaces13user_provider12UserProvider8add_role0Bc_
FNDA:0,_RNCNCNvXs_NtNtNtCskY3J53qhLT7_5oauth8adapters8keycloak16keycloak_adapterNtB8_19KeycloakUserAdapterNtNtNtNtBe_4core10interfaces13user_provider12UserProvider8add_role00Be_
FNDA:0,_RNCNCNCNvXs_NtNtNtCskY3J53qhLT7_5oauth8adapters8keycloak16keycloak_adapterNtBa_19KeycloakUserAdapterNtNtNtNtBg_4core10interfaces13user_provider12UserProvider8add_role000Bg_
FNDA:0,_RNCNCNvXs_NtNtNtCskY3J53qhLT7_5oauth8adapters8keycloak16keycloak_adapterNtB8_19KeycloakUserAdapterNtNtNtNtBe_4core10interfaces13user_provider12UserProvider8add_role0s_0Be_
FNDA:0,_RNCNCNCNvXs_NtNtNtCskY3J53qhLT7_5oauth8adapters8keycloak16keycloak_adapterNtBa_19KeycloakUserAdapterNtNtNtNtBg_4core10interfaces13user_provider12UserProvider8add_role0s_00Bg_
FNDA:0,_RNCNCNvXs_NtNtNtCskY3J53qhLT7_5oauth8adapters8keycloak16keycloak_adapterNtB8_19KeycloakUserAdapterNtNtNtNtBe_4core10interfaces13user_provider12UserProvider8add_role0s0_0Be_
FNDA:0,_RNCNCNvXs_NtNtNtCskY3J53qhLT7_5oauth8adapters8keycloak16keycloak_adapterNtB8_19KeycloakUserAdapterNtNtNtNtBe_4core10interfaces13user_provider12UserProvider8add_role0s1_0Be_
FNDA:0,_RNCNCNvXs_NtNtNtCskY3J53qhLT7_5oauth8adapters8keycloak16keycloak_adapterNtB8_19KeycloakUserAdapterNtNtNtNtBe_4core10interfaces13user_provider12UserProvider8add_role0s2_0Be_
FNDA:0,_RNCNCNCNvXs_NtNtNtCskY3J53qhLT7_5oauth8adapters8keycloak16keycloak_adapterNtBa_19KeycloakUserAdapterNtNtNtNtBg_4core10interfaces13user_provider12UserProvider8add_role0s2_00Bg_
FNDA:0,_RNCNCNCNCNvXs_NtNtNtCskY3J53qhLT7_5oauth8adapters8keycloak16keycloak_adapterNtBc_19KeycloakUserAdapterNtNtNtNtBi_4core10interfaces13user_provider12UserProvider8add_role0s2_000Bi_
FNDA:0,_RNCNCNvXs_NtNtNtCskY3J53qhLT7_5oauth8adapters8keycloak16keycloak_adapterNtB8_19KeycloakUserAdapterNtNtNtNtBe_4core10interfaces13user_provider12UserProvider8add_role0s3_0Be_
FNDA:0,_RNCNCNCNvXs_NtNtNtCskY3J53qhLT7_5oauth8adapters8keycloak16keycloak_adapterNtBa_19KeycloakUserAdapterNtNtNtNtBg_4core10interfaces13user_provider12UserProvider8add_role0s3_00Bg_
FNDA:0,_RNCNCNvXs_NtNtNtCskY3J53qhLT7_5oauth8adapters8keycloak16keycloak_adapterNtB8_19KeycloakUserAdapterNtNtNtNtBe_4core10interfaces13user_provider12UserProvider8add_role0s4_0Be_
FNDA:0,_RNCNvXs_NtNtNtCskY3J53qhLT7_5oauth8adapters8keycloak16keycloak_adapterNtB6_19KeycloakUserAdapterNtNtNtNtBc_4core10interfaces13user_provider12UserProvider11remove_role0Bc_
FNDA:0,_RNCNCNvXs_NtNtNtCskY3J53qhLT7_5oauth8adapters8keycloak16keycloak_adapterNtB8_19KeycloakUserAdapterNtNtNtNtBe_4core10interfaces13user_provider12UserProvider11remove_role00Be_
FNDA:0,_RNCNCNCNvXs_NtNtNtCskY3J53qhLT7_5oauth8adapters8keycloak16keycloak_adapterNtBa_19KeycloakUserAdapterNtNtNtNtBg_4core10interfaces13user_provider12UserProvider11remove_role000Bg_
FNDA:0,_RNCNCNvXs_NtNtNtCskY3J53qhLT7_5oauth8adapters8keycloak16keycloak_adapterNtB8_19KeycloakUserAdapterNtNtNtNtBe_4core10interfaces13user_provider12UserProvider11remove_role0s_0Be_
FNDA:0,_RNCNCNCNvXs_NtNtNtCskY3J53qhLT7_5oauth8adapters8keycloak16keycloak_adapterNtBa_19KeycloakUserAdapterNtNtNtNtBg_4core10interfaces13user_provider12UserProvider11remove_role0s_00Bg_
FNDA:0,_RNCNCNvXs_NtNtNtCskY3J53qhLT7_5oauth8adapters8keycloak16keycloak_adapterNtB8_19KeycloakUserAdapterNtNtNtNtBe_4core10interfaces13user_provider12UserProvider11remove_role0s0_0Be_
FNDA:0,_RNCNCNCNvXs_NtNtNtCskY3J53qhLT7_5oauth8adapters8keycloak16keycloak_adapterNtBa_19KeycloakUserAdapterNtNtNtNtBg_4core10interfaces13user_provider12UserProvider11remove_role0s0_00Bg_
FNDA:0,_RNCNCNvXs_NtNtNtCskY3J53qhLT7_5oauth8adapters8keycloak16keycloak_adapterNtB8_19KeycloakUserAdapterNtNtNtNtBe_4core10interfaces13user_provider12UserProvider11remove_role0s1_0Be_
FNDA:0,_RNCNCNvXs_NtNtNtCskY3J53qhLT7_5oauth8adapters8keycloak16keycloak_adapterNtB8_19KeycloakUserAdapterNtNtNtNtBe_4core10interfaces13user_provider12UserProvider8add_role0s5_0Be_
FNDA:0,_RNCNCNvXs_NtNtNtCskY3J53qhLT7_5oauth8adapters8keycloak16keycloak_adapterNtB8_19KeycloakUserAdapterNtNtNtNtBe_4core10interfaces13user_provider12UserProvider8add_role0s6_0Be_
FNDA:0,_RNCNCNvXs_NtNtNtCskY3J53qhLT7_5oauth8adapters8keycloak16keycloak_adapterNtB8_19KeycloakUserAdapterNtNtNtNtBe_4core10interfaces13user_provider12UserProvider11remove_role0s2_0Be_
FNDA:0,_RNCNCNvXs_NtNtNtCskY3J53qhLT7_5oauth8adapters8keycloak16keycloak_adapterNtB8_19KeycloakUserAdapterNtNtNtNtBe_4core10interfaces13user_provider12UserProvider11remove_role0s3_0Be_
FNDA:0,_RNCNvXs0_NtNtNtCskY3J53qhLT7_5oauth8adapters8keycloak16keycloak_adapterNtB7_19KeycloakRoleAdapterNtNtNtNtBd_4core10interfaces13role_provider12RoleProvider11create_role0Bd_
FNDA:0,_RNCNCNvXs0_NtNtNtCskY3J53qhLT7_5oauth8adapters8keycloak16keycloak_adapterNtB9_19KeycloakRoleAdapterNtNtNtNtBf_4core10interfaces13role_provider12RoleProvider11create_role00Bf_
FNDA:0,_RNCNCNCNvXs0_NtNtNtCskY3J53qhLT7_5oauth8adapters8keycloak16keycloak_adapterNtBb_19KeycloakRoleAdapterNtNtNtNtBh_4core10interfaces13role_provider12RoleProvider11create_role000Bh_
FNDA:0,_RNCNCNvXs0_NtNtNtCskY3J53qhLT7_5oauth8adapters8keycloak16keycloak_adapterNtB9_19KeycloakRoleAdapterNtNtNtNtBf_4core10interfaces13role_provider12RoleProvider11create_role0s_0Bf_
FNDA:0,_RNCNCNvXs0_NtNtNtCskY3J53qhLT7_5oauth8adapters8keycloak16keycloak_adapterNtB9_19KeycloakRoleAdapterNtNtNtNtBf_4core10interfaces13role_provider12RoleProvider11create_role0s0_0Bf_
FNDA:0,_RNCNvXs0_NtNtNtCskY3J53qhLT7_5oauth8adapters8keycloak16keycloak_adapterNtB7_19KeycloakRoleAdapterNtNtNtNtBd_4core10interfaces13role_provider12RoleProvider9get_roles0Bd_
FNDA:0,_RNCNCNvXs0_NtNtNtCskY3J53qhLT7_5oauth8adapters8keycloak16keycloak_adapterNtB9_19KeycloakRoleAdapterNtNtNtNtBf_4core10interfaces13role_provider12RoleProvider9get_roles00Bf_
FNDA:0,_RNCNCNCNvXs0_NtNtNtCskY3J53qhLT7_5oauth8adapters8keycloak16keycloak_adapterNtBb_19KeycloakRoleAdapterNtNtNtNtBh_4core10interfaces13role_provider12RoleProvider9get_roles000Bh_
FNDA:0,_RNCNCNvXs0_NtNtNtCskY3J53qhLT7_5oauth8adapters8keycloak16keycloak_adapterNtB9_19KeycloakRoleAdapterNtNtNtNtBf_4core10interfaces13role_provider12RoleProvider9get_roles0s_0Bf_
FNDA:0,_RNCNCNCNvXs0_NtNtNtCskY3J53qhLT7_5oauth8adapters8keycloak16keycloak_adapterNtBb_19KeycloakRoleAdapterNtNtNtNtBh_4core10interfaces13role_provider12RoleProvider9get_roles0s_00Bh_
FNDA:0,_RNCNCNvXs0_NtNtNtCskY3J53qhLT7_5oauth8adapters8keycloak16keycloak_adapterNtB9_19KeycloakRoleAdapterNtNtNtNtBf_4core10interfaces13role_provider12RoleProvider9get_roles0s0_0Bf_
FNDA:0,_RNCNCNCNvXs0_NtNtNtCskY3J53qhLT7_5oauth8adapters8keycloak16keycloak_adapterNtBb_19KeycloakRoleAdapterNtNtNtNtBh_4core10interfaces13role_provider12RoleProvider9get_roles0s0_00Bh_
FNDA:0,_RNCNCNCNvXs0_NtNtNtCskY3J53qhLT7_5oauth8adapters8keycloak16keycloak_adapterNtBb_19KeycloakRoleAdapterNtNtNtNtBh_4core10interfaces13role_provider12RoleProvider9get_roles0s0_0s_0Bh_
FNDA:0,_RNCNCNCNvXs0_NtNtNtCskY3J53qhLT7_5oauth8adapters8keycloak16keycloak_adapterNtBb_19KeycloakRoleAdapterNtNtNtNtBh_4core10interfaces13role_provider12RoleProvider9get_roles0s0_0s0_0Bh_
FNDA:0,_RNCNCNCNCNvXs0_NtNtNtCskY3J53qhLT7_5oauth8adapters8keycloak16keycloak_adapterNtBd_19KeycloakRoleAdapterNtNtNtNtBj_4core10interfaces13role_provider12RoleProvider9get_roles0s0_0s0_00Bj_
FNDA:0,_RNCNCNCNCNCNvXs0_NtNtNtCskY3J53qhLT7_5oauth8adapters8keycloak16keycloak_adapterNtBf_19KeycloakRoleAdapterNtNtNtNtBl_4core10interfaces13role_provider12RoleProvider9get_roles0s0_0s0_000Bl_
FNDA:0,_RNCNCNvXs0_NtNtNtCskY3J53qhLT7_5oauth8adapters8keycloak16keycloak_adapterNtB9_19KeycloakRoleAdapterNtNtNtNtBf_4core10interfaces13role_provider12RoleProvider9get_roles0s1_0Bf_
FNDA:0,_RNCNCNCNvXs0_NtNtNtCskY3J53qhLT7_5oauth8adapters8keycloak16keycloak_adapterNtBb_19KeycloakRoleAdapterNtNtNtNtBh_4core10interfaces13role_provider12RoleProvider9get_roles0s1_00Bh_
FNDA:0,_RNCNCNCNvXs0_NtNtNtCskY3J53qhLT7_5oauth8adapters8keycloak16keycloak_adapterNtBb_19KeycloakRoleAdapterNtNtNtNtBh_4core10interfaces13role_provider12RoleProvider9get_roles0s1_0s_0Bh_
FNDA:0,_RNCNCNCNvXs0_NtNtNtCskY3J53qhLT7_5oauth8adapters8keycloak16keycloak_adapterNtBb_19KeycloakRoleAdapterNtNtNtNtBh_4core10interfaces13role_provider12RoleProvider9get_roles0s1_0s0_0Bh_
FNDA:0,_RNCNCNvXs0_NtNtNtCskY3J53qhLT7_5oauth8adapters8keycloak16keycloak_adapterNtB9_19KeycloakRoleAdapterNtNtNtNtBf_4core10interfaces13role_provider12RoleProvider9get_roles0s2_0Bf_
FNDA:0,_RNCNvXs0_NtNtNtCskY3J53qhLT7_5oauth8adapters8keycloak16keycloak_adapterNtB7_19KeycloakRoleAdapterNtNtNtNtBd_4core10interfaces13role_provider12RoleProvider8get_role0Bd_
FNDA:0,_RNCNCNvXs0_NtNtNtCskY3J53qhLT7_5oauth8adapters8keycloak16keycloak_adapterNtB9_19KeycloakRoleAdapterNtNtNtNtBf_4core10interfaces13role_provider12RoleProvider8get_role00Bf_
FNDA:0,_RNCNCNCNvXs0_NtNtNtCskY3J53qhLT7_5oauth8adapters8keycloak16keycloak_adapterNtBb_19KeycloakRoleAdapterNtNtNtNtBh_4core10interfaces13role_provider12RoleProvider8get_role000Bh_
FNDA:0,_RNCNCNvXs0_NtNtNtCskY3J53qhLT7_5oauth8adapters8keycloak16keycloak_adapterNtB9_19KeycloakRoleAdapterNtNtNtNtBf_4core10interfaces13role_provider12RoleProvider8get_role0s_0Bf_
FNDA:0,_RNCNCNCNvXs0_NtNtNtCskY3J53qhLT7_5oauth8adapters8keycloak16keycloak_adapterNtBb_19KeycloakRoleAdapterNtNtNtNtBh_4core10interfaces13role_provider12RoleProvider8get_role0s_00Bh_
FNDA:0,_RNCNCNvXs0_NtNtNtCskY3J53qhLT7_5oauth8adapters8keycloak16keycloak_adapterNtB9_19KeycloakRoleAdapterNtNtNtNtBf_4core10interfaces13role_provider12RoleProvider8get_role0s0_0Bf_
FNDA:0,_RNCNCNvXs0_NtNtNtCskY3J53qhLT7_5oauth8adapters8keycloak16keycloak_adapterNtB9_19KeycloakRoleAdapterNtNtNtNtBf_4core10interfaces13role_provider12RoleProvider8get_role0s1_0Bf_
FNDA:0,_RNCNCNvXs0_NtNtNtCskY3J53qhLT7_5oauth8adapters8keycloak16keycloak_adapterNtB9_19KeycloakRoleAdapterNtNtNtNtBf_4core10interfaces13role_provider12RoleProvider8get_role0s2_0Bf_
FNDA:0,_RNCNCNCNvXs0_NtNtNtCskY3J53qhLT7_5oauth8adapters8keycloak16keycloak_adapterNtBb_19KeycloakRoleAdapterNtNtNtNtBh_4core10interfaces13role_provider12RoleProvider8get_role0s2_00Bh_
FNDA:0,_RNCNCNCNCNvXs0_NtNtNtCskY3J53qhLT7_5oauth8adapters8keycloak16keycloak_adapterNtBd_19KeycloakRoleAdapterNtNtNtNtBj_4core10interfaces13role_provider12RoleProvider8get_role0s2_000Bj_
FNDA:0,_RNCNCNvXs0_NtNtNtCskY3J53qhLT7_5oauth8adapters8keycloak16keycloak_adapterNtB9_19KeycloakRoleAdapterNtNtNtNtBf_4core10interfaces13role_provider12RoleProvider8get_role0s3_0Bf_
FNDA:0,_RNCNCNvXs0_NtNtNtCskY3J53qhLT7_5oauth8adapters8keycloak16keycloak_adapterNtB9_19KeycloakRoleAdapterNtNtNtNtBf_4core10interfaces13role_provider12RoleProvider8get_role0s4_0Bf_
FNDA:0,_RNCNCNvXs0_NtNtNtCskY3J53qhLT7_5oauth8adapters8keycloak16keycloak_adapterNtB9_19KeycloakRoleAdapterNtNtNtNtBf_4core10interfaces13role_provider12RoleProvider8get_role0s5_0Bf_
FNDA:0,_RNCNCNvXs0_NtNtNtCskY3J53qhLT7_5oauth8adapters8keycloak16keycloak_adapterNtB9_19KeycloakRoleAdapterNtNtNtNtBf_4core10interfaces13role_provider12RoleProvider8get_role0s6_0Bf_
FNDA:0,_RNCNvXs0_NtNtNtCskY3J53qhLT7_5oauth8adapters8keycloak16keycloak_adapterNtB7_19KeycloakRoleAdapterNtNtNtNtBd_4core10interfaces13role_provider12RoleProvider11update_role0Bd_
FNDA:0,_RNCNCNvXs0_NtNtNtCskY3J53qhLT7_5oauth8adapters8keycloak16keycloak_adapterNtB9_19KeycloakRoleAdapterNtNtNtNtBf_4core10interfaces13role_provider12RoleProvider11update_role00Bf_
FNDA:0,_RNCNCNCNvXs0_NtNtNtCskY3J53qhLT7_5oauth8adapters8keycloak16keycloak_adapterNtBb_19KeycloakRoleAdapterNtNtNtNtBh_4core10interfaces13role_provider12RoleProvider11update_role000Bh_
FNDA:0,_RNCNCNvXs0_NtNtNtCskY3J53qhLT7_5oauth8adapters8keycloak16keycloak_adapterNtB9_19KeycloakRoleAdapterNtNtNtNtBf_4core10interfaces13role_provider12RoleProvider11update_role0s_0Bf_
FNDA:0,_RNCNvXs0_NtNtNtCskY3J53qhLT7_5oauth8adapters8keycloak16keycloak_adapterNtB7_19KeycloakRoleAdapterNtNtNtNtBd_4core10interfaces13role_provider12RoleProvider10patch_role0Bd_
FNDA:0,_RNCNCNvXs0_NtNtNtCskY3J53qhLT7_5oauth8adapters8keycloak16keycloak_adapterNtB9_19KeycloakRoleAdapterNtNtNtNtBf_4core10interfaces13role_provider12RoleProvider10patch_role00Bf_
FNDA:0,_RNCNCNCNvXs0_NtNtNtCskY3J53qhLT7_5oauth8adapters8keycloak16keycloak_adapterNtBb_19KeycloakRoleAdapterNtNtNtNtBh_4core10interfaces13role_provider12RoleProvider10patch_role000Bh_
FNDA:0,_RNCNCNvXs0_NtNtNtCskY3J53qhLT7_5oauth8adapters8keycloak16keycloak_adapterNtB9_19KeycloakRoleAdapterNtNtNtNtBf_4core10interfaces13role_provider12RoleProvider10patch_role0s_0Bf_
FNDA:0,_RNCNvXs0_NtNtNtCskY3J53qhLT7_5oauth8adapters8keycloak16keycloak_adapterNtB7_19KeycloakRoleAdapterNtNtNtNtBd_4core10interfaces13role_provider12RoleProvider11delete_role0Bd_
FNDA:0,_RNCNCNvXs0_NtNtNtCskY3J53qhLT7_5oauth8adapters8keycloak16keycloak_adapterNtB9_19KeycloakRoleAdapterNtNtNtNtBf_4core10interfaces13role_provider12RoleProvider11delete_role00Bf_
FNDA:0,_RNCNCNCNvXs0_NtNtNtCskY3J53qhLT7_5oauth8adapters8keycloak16keycloak_adapterNtBb_19KeycloakRoleAdapterNtNtNtNtBh_4core10interfaces13role_provider12RoleProvider11delete_role000Bh_
FNDA:0,_RNCNCNvXs0_NtNtNtCskY3J53qhLT7_5oauth8adapters8keycloak16keycloak_adapterNtB9_19KeycloakRoleAdapterNtNtNtNtBf_4core10interfaces13role_provider12RoleProvider11delete_role0s_0Bf_
FNDA:0,_RNvXNtNtNtCskY3J53qhLT7_5oauth8adapters8keycloak16keycloak_adapterNtB2_19KeycloakAuthAdapterNtNtNtNtB8_4core10interfaces13auth_provider12AuthProvider5login
FNDA:0,_RNvXs_NtNtNtCskY3J53qhLT7_5oauth8adapters8keycloak16keycloak_adapterNtB4_19KeycloakUserAdapterNtNtNtNtBa_4core10interfaces13user_provider12UserProvider11create_user
FNDA:0,_RNvXs_NtNtNtCskY3J53qhLT7_5oauth8adapters8keycloak16keycloak_adapterNtB4_19KeycloakUserAdapterNtNtNtNtBa_4core10interfaces13user_provider12UserProvider9get_users
FNDA:0,_RNvXs_NtNtNtCskY3J53qhLT7_5oauth8adapters8keycloak16keycloak_adapterNtB4_19KeycloakUserAdapterNtNtNtNtBa_4core10interfaces13user_provider12UserProvider8get_user
FNDA:0,_RNvXs_NtNtNtCskY3J53qhLT7_5oauth8adapters8keycloak16keycloak_adapterNtB4_19KeycloakUserAdapterNtNtNtNtBa_4core10interfaces13user_provider12UserProvider11update_user
FNDA:0,_RNvXs_NtNtNtCskY3J53qhLT7_5oauth8adapters8keycloak16keycloak_adapterNtB4_19KeycloakUserAdapterNtNtNtNtBa_4core10interfaces13user_provider12UserProvider15update_password
FNDA:0,_RNvXs_NtNtNtCskY3J53qhLT7_5oauth8adapters8keycloak16keycloak_adapterNtB4_19KeycloakUserAdapterNtNtNtNtBa_4core10interfaces13user_provider12UserProvider11delete_user
FNDA:0,_RNvXs_NtNtNtCskY3J53qhLT7_5oauth8adapters8keycloak16keycloak_adapterNtB4_19KeycloakUserAdapterNtNtNtNtBa_4core10interfaces13user_provider12UserProvider8add_role
FNDA:0,_RNvXs_NtNtNtCskY3J53qhLT7_5oauth8adapters8keycloak16keycloak_adapterNtB4_19KeycloakUserAdapterNtNtNtNtBa_4core10interfaces13user_provider12UserProvider11remove_role
FNDA:0,_RNvXs0_NtNtNtCskY3J53qhLT7_5oauth8adapters8keycloak16keycloak_adapterNtB5_19KeycloakRoleAdapterNtNtNtNtBb_4core10interfaces13role_provider12RoleProvider11create_role
FNDA:0,_RNvXs0_NtNtNtCskY3J53qhLT7_5oauth8adapters8keycloak16keycloak_adapterNtB5_19KeycloakRoleAdapterNtNtNtNtBb_4core10interfaces13role_provider12RoleProvider9get_roles
FNDA:0,_RNvXs0_NtNtNtCskY3J53qhLT7_5oauth8adapters8keycloak16keycloak_adapterNtB5_19KeycloakRoleAdapterNtNtNtNtBb_4core10interfaces13role_provider12RoleProvider8get_role
FNDA:0,_RNvXs0_NtNtNtCskY3J53qhLT7_5oauth8adapters8keycloak16keycloak_adapterNtB5_19KeycloakRoleAdapterNtNtNtNtBb_4core10interfaces13role_provider12RoleProvider11update_role
FNDA:0,_RNvXs0_NtNtNtCskY3J53qhLT7_5oauth8adapters8keycloak16keycloak_adapterNtB5_19KeycloakRoleAdapterNtNtNtNtBb_4core10interfaces13role_provider12RoleProvider10patch_role
FNDA:0,_RNvXs0_NtNtNtCskY3J53qhLT7_5oauth8adapters8keycloak16keycloak_adapterNtB5_19KeycloakRoleAdapterNtNtNtNtBb_4core10interfaces13role_provider12RoleProvider11delete_role
FNDA:0,_RNvXNtNtNtCs16bWprmmhjH_5oauth8adapters8keycloak16keycloak_adapterNtB2_19KeycloakAuthAdapterNtNtNtNtB8_4core10interfaces13auth_provider12AuthProvider5login
FNDA:0,_RNCNvXNtNtNtCs16bWprmmhjH_5oauth8adapters8keycloak16keycloak_adapterNtB4_19KeycloakAuthAdapterNtNtNtNtBa_4core10interfaces13auth_provider12AuthProvider5login0Ba_
FNDA:0,_RNCNCNvXNtNtNtCs16bWprmmhjH_5oauth8adapters8keycloak16keycloak_adapterNtB6_19KeycloakAuthAdapterNtNtNtNtBc_4core10interfaces13auth_provider12AuthProvider5login00Bc_
FNDA:0,_RNCNCNCNvXNtNtNtCs16bWprmmhjH_5oauth8adapters8keycloak16keycloak_adapterNtB8_19KeycloakAuthAdapterNtNtNtNtBe_4core10interfaces13auth_provider12AuthProvider5login000Be_
FNDA:0,_RNCNCNvXNtNtNtCs16bWprmmhjH_5oauth8adapters8keycloak16keycloak_adapterNtB6_19KeycloakAuthAdapterNtNtNtNtBc_4core10interfaces13auth_provider12AuthProvider5login0s_0Bc_
FNDA:0,_RNCNCNCNvXNtNtNtCs16bWprmmhjH_5oauth8adapters8keycloak16keycloak_adapterNtB8_19KeycloakAuthAdapterNtNtNtNtBe_4core10interfaces13auth_provider12AuthProvider5login0s_00Be_
FNDA:0,_RNCNCNvXNtNtNtCs16bWprmmhjH_5oauth8adapters8keycloak16keycloak_adapterNtB6_19KeycloakAuthAdapterNtNtNtNtBc_4core10interfaces13auth_provider12AuthProvider5login0s0_0Bc_
FNDA:0,_RNvXs_NtNtNtCs16bWprmmhjH_5oauth8adapters8keycloak16keycloak_adapterNtB4_19KeycloakUserAdapterNtNtNtNtBa_4core10interfaces13user_provider12UserProvider11create_user
FNDA:0,_RNCNvXs_NtNtNtCs16bWprmmhjH_5oauth8adapters8keycloak16keycloak_adapterNtB6_19KeycloakUserAdapterNtNtNtNtBc_4core10interfaces13user_provider12UserProvider11create_user0Bc_
FNDA:0,_RNCNCNvXs_NtNtNtCs16bWprmmhjH_5oauth8adapters8keycloak16keycloak_adapterNtB8_19KeycloakUserAdapterNtNtNtNtBe_4core10interfaces13user_provider12UserProvider11create_user00Be_
FNDA:0,_RNCNCNCNvXs_NtNtNtCs16bWprmmhjH_5oauth8adapters8keycloak16keycloak_adapterNtBa_19KeycloakUserAdapterNtNtNtNtBg_4core10interfaces13user_provider12UserProvider11create_user000Bg_
FNDA:0,_RNCNCNvXs_NtNtNtCs16bWprmmhjH_5oauth8adapters8keycloak16keycloak_adapterNtB8_19KeycloakUserAdapterNtNtNtNtBe_4core10interfaces13user_provider12UserProvider11create_user0s_0Be_
FNDA:0,_RNCNCNvXs_NtNtNtCs16bWprmmhjH_5oauth8adapters8keycloak16keycloak_adapterNtB8_19KeycloakUserAdapterNtNtNtNtBe_4core10interfaces13user_provider12UserProvider11create_user0s0_0Be_
FNDA:0,_RNCNCNvXs_NtNtNtCs16bWprmmhjH_5oauth8adapters8keycloak16keycloak_adapterNtB8_19KeycloakUserAdapterNtNtNtNtBe_4core10interfaces13user_provider12UserProvider11create_user0s1_0Be_
FNDA:0,_RNvXs_NtNtNtCs16bWprmmhjH_5oauth8adapters8keycloak16keycloak_adapterNtB4_19KeycloakUserAdapterNtNtNtNtBa_4core10interfaces13user_provider12UserProvider9get_users
FNDA:0,_RNCNvXs_NtNtNtCs16bWprmmhjH_5oauth8adapters8keycloak16keycloak_adapterNtB6_19KeycloakUserAdapterNtNtNtNtBc_4core10interfaces13user_provider12UserProvider9get_users0Bc_
FNDA:0,_RNCNCNvXs_NtNtNtCs16bWprmmhjH_5oauth8adapters8keycloak16keycloak_adapterNtB8_19KeycloakUserAdapterNtNtNtNtBe_4core10interfaces13user_provider12UserProvider9get_users00Be_
FNDA:0,_RNCNCNCNvXs_NtNtNtCs16bWprmmhjH_5oauth8adapters8keycloak16keycloak_adapterNtBa_19KeycloakUserAdapterNtNtNtNtBg_4core10interfaces13user_provider12UserProvider9get_users000Bg_
FNDA:0,_RNCNCNvXs_NtNtNtCs16bWprmmhjH_5oauth8adapters8keycloak16keycloak_adapterNtB8_19KeycloakUserAdapterNtNtNtNtBe_4core10interfaces13user_provider12UserProvider9get_users0s_0Be_
FNDA:0,_RNCNCNCNvXs_NtNtNtCs16bWprmmhjH_5oauth8adapters8keycloak16keycloak_adapterNtBa_19KeycloakUserAdapterNtNtNtNtBg_4core10interfaces13user_provider12UserProvider9get_users0s_00Bg_
FNDA:0,_RNCNCNvXs_NtNtNtCs16bWprmmhjH_5oauth8adapters8keycloak16keycloak_adapterNtB8_19KeycloakUserAdapterNtNtNtNtBe_4core10interfaces13user_provider12UserProvider9get_users0s0_0Be_
FNDA:0,_RNCNCNCNvXs_NtNtNtCs16bWprmmhjH_5oauth8adapters8keycloak16keycloak_adapterNtBa_19KeycloakUserAdapterNtNtNtNtBg_4core10interfaces13user_provider12UserProvider9get_users0s0_00Bg_
FNDA:0,_RNCNCNCNvXs_NtNtNtCs16bWprmmhjH_5oauth8adapters8keycloak16keycloak_adapterNtBa_19KeycloakUserAdapterNtNtNtNtBg_4core10interfaces13user_provider12UserProvider9get_users0s0_0s_0Bg_
FNDA:0,_RNCNCNCNvXs_NtNtNtCs16bWprmmhjH_5oauth8adapters8keycloak16keycloak_adapterNtBa_19KeycloakUserAdapterNtNtNtNtBg_4core10interfaces13user_provider12UserProvider9get_users0s0_0s0_0Bg_
FNDA:0,_RNCNCNCNCNvXs_NtNtNtCs16bWprmmhjH_5oauth8adapters8keycloak16keycloak_adapterNtBc_19KeycloakUserAdapterNtNtNtNtBi_4core10interfaces13user_provider12UserProvider9get_users0s0_0s0_00Bi_
FNDA:0,_RNCNCNCNvXs_NtNtNtCs16bWprmmhjH_5oauth8adapters8keycloak16keycloak_adapterNtBa_19KeycloakUserAdapterNtNtNtNtBg_4core10interfaces13user_provider12UserProvider9get_users0s0_0s1_0Bg_
FNDA:0,_RNCNCNCNvXs_NtNtNtCs16bWprmmhjH_5oauth8adapters8keycloak16keycloak_adapterNtBa_19KeycloakUserAdapterNtNtNtNtBg_4core10interfaces13user_provider12UserProvider9get_users0s0_0s2_0Bg_
FNDA:0,_RNCNCNCNvXs_NtNtNtCs16bWprmmhjH_5oauth8adapters8keycloak16keycloak_adapterNtBa_19KeycloakUserAdapterNtNtNtNtBg_4core10interfaces13user_provider12UserProvider9get_users0s0_0s3_0Bg_
FNDA:0,_RNCNCNCNvXs_NtNtNtCs16bWprmmhjH_5oauth8adapters8keycloak16keycloak_adapterNtBa_19KeycloakUserAdapterNtNtNtNtBg_4core10interfaces13user_provider12UserProvider9get_users0s0_0s4_0Bg_
FNDA:0,_RNCNCNCNvXs_NtNtNtCs16bWprmmhjH_5oauth8adapters8keycloak16keycloak_adapterNtBa_19KeycloakUserAdapterNtNtNtNtBg_4core10interfaces13user_provider12UserProvider9get_users0s0_0s5_0Bg_
FNDA:0,_RNCNCNCNvXs_NtNtNtCs16bWprmmhjH_5oauth8adapters8keycloak16keycloak_adapterNtBa_19KeycloakUserAdapterNtNtNtNtBg_4core10interfaces13user_provider12UserProvider9get_users0s0_0s6_0Bg_
FNDA:0,_RNCNCNCNvXs_NtNtNtCs16bWprmmhjH_5oauth8adapters8keycloak16keycloak_adapterNtBa_19KeycloakUserAdapterNtNtNtNtBg_4core10interfaces13user_provider12UserProvider9get_users0s0_0s7_0Bg_
FNDA:0,_RNCNCNvXs_NtNtNtCs16bWprmmhjH_5oauth8adapters8keycloak16keycloak_adapterNtB8_19KeycloakUserAdapterNtNtNtNtBe_4core10interfaces13user_provider12UserProvider9get_users0s1_0Be_
FNDA:0,_RNvXs_NtNtNtCs16bWprmmhjH_5oauth8adapters8keycloak16keycloak_adapterNtB4_19KeycloakUserAdapterNtNtNtNtBa_4core10interfaces13user_provider12UserProvider8get_user
FNDA:0,_RNCNvXs_NtNtNtCs16bWprmmhjH_5oauth8adapters8keycloak16keycloak_adapterNtB6_19KeycloakUserAdapterNtNtNtNtBc_4core10interfaces13user_provider12UserProvider8get_user0Bc_
FNDA:0,_RNCNCNvXs_NtNtNtCs16bWprmmhjH_5oauth8adapters8keycloak16keycloak_adapterNtB8_19KeycloakUserAdapterNtNtNtNtBe_4core10interfaces13user_provider12UserProvider8get_user00Be_
FNDA:0,_RNCNCNCNvXs_NtNtNtCs16bWprmmhjH_5oauth8adapters8keycloak16keycloak_adapterNtBa_19KeycloakUserAdapterNtNtNtNtBg_4core10interfaces13user_provider12UserProvider8get_user000Bg_
FNDA:0,_RNCNCNvXs_NtNtNtCs16bWprmmhjH_5oauth8adapters8keycloak16keycloak_adapterNtB8_19KeycloakUserAdapterNtNtNtNtBe_4core10interfaces13user_provider12UserProvider8get_user0s_0Be_
FNDA:0,_RNCNCNCNvXs_NtNtNtCs16bWprmmhjH_5oauth8adapters8keycloak16keycloak_adapterNtBa_19KeycloakUserAdapterNtNtNtNtBg_4core10interfaces13user_provider12UserProvider8get_user0s_00Bg_
FNDA:0,_RNCNCNvXs_NtNtNtCs16bWprmmhjH_5oauth8adapters8keycloak16keycloak_adapterNtB8_19KeycloakUserAdapterNtNtNtNtBe_4core10interfaces13user_provider12UserProvider8get_user0s0_0Be_
FNDA:0,_RNCNCNvXs_NtNtNtCs16bWprmmhjH_5oauth8adapters8keycloak16keycloak_adapterNtB8_19KeycloakUserAdapterNtNtNtNtBe_4core10interfaces13user_provider12UserProvider8get_user0s1_0Be_
FNDA:0,_RNCNCNvXs_NtNtNtCs16bWprmmhjH_5oauth8adapters8keycloak16keycloak_adapterNtB8_19KeycloakUserAdapterNtNtNtNtBe_4core10interfaces13user_provider12UserProvider8get_user0s2_0Be_
FNDA:0,_RNCNCNCNvXs_NtNtNtCs16bWprmmhjH_5oauth8adapters8keycloak16keycloak_adapterNtBa_19KeycloakUserAdapterNtNtNtNtBg_4core10interfaces13user_provider12UserProvider8get_user0s2_00Bg_
FNDA:0,_RNCNCNvXs_NtNtNtCs16bWprmmhjH_5oauth8adapters8keycloak16keycloak_adapterNtB8_19KeycloakUserAdapterNtNtNtNtBe_4core10interfaces13user_provider12UserProvider8get_user0s3_0Be_
FNDA:0,_RNCNCNvXs_NtNtNtCs16bWprmmhjH_5oauth8adapters8keycloak16keycloak_adapterNtB8_19KeycloakUserAdapterNtNtNtNtBe_4core10interfaces13user_provider12UserProvider8get_user0s4_0Be_
FNDA:0,_RNCNCNvXs_NtNtNtCs16bWprmmhjH_5oauth8adapters8keycloak16keycloak_adapterNtB8_19KeycloakUserAdapterNtNtNtNtBe_4core10interfaces13user_provider12UserProvider8get_user0s5_0Be_
FNDA:0,_RNCNCNvXs_NtNtNtCs16bWprmmhjH_5oauth8adapters8keycloak16keycloak_adapterNtB8_19KeycloakUserAdapterNtNtNtNtBe_4core10interfaces13user_provider12UserProvider8get_user0s6_0Be_
FNDA:0,_RNCNCNvXs_NtNtNtCs16bWprmmhjH_5oauth8adapters8keycloak16keycloak_adapterNtB8_19KeycloakUserAdapterNtNtNtNtBe_4core10interfaces13user_provider12UserProvider8get_user0s7_0Be_
FNDA:0,_RNCNCNvXs_NtNtNtCs16bWprmmhjH_5oauth8adapters8keycloak16keycloak_adapterNtB8_19KeycloakUserAdapterNtNtNtNtBe_4core10interfaces13user_provider12UserProvider8get_user0s8_0Be_
FNDA:0,_RNCNCNvXs_NtNtNtCs16bWprmmhjH_5oauth8adapters8keycloak16keycloak_adapterNtB8_19KeycloakUserAdapterNtNtNtNtBe_4core10interfaces13user_provider12UserProvider8get_user0s9_0Be_
FNDA:0,_RNCNCNvXs_NtNtNtCs16bWprmmhjH_5oauth8adapters8keycloak16keycloak_adapterNtB8_19KeycloakUserAdapterNtNtNtNtBe_4core10interfaces13user_provider12UserProvider8get_user0sa_0Be_
FNDA:0,_RNvXs_NtNtNtCs16bWprmmhjH_5oauth8adapters8keycloak16keycloak_adapterNtB4_19KeycloakUserAdapterNtNtNtNtBa_4core10interfaces13user_provider12UserProvider11update_user
FNDA:0,_RNCNvXs_NtNtNtCs16bWprmmhjH_5oauth8adapters8keycloak16keycloak_adapterNtB6_19KeycloakUserAdapterNtNtNtNtBc_4core10interfaces13user_provider12UserProvider11update_user0Bc_
FNDA:0,_RNCNCNvXs_NtNtNtCs16bWprmmhjH_5oauth8adapters8keycloak16keycloak_adapterNtB8_19KeycloakUserAdapterNtNtNtNtBe_4core10interfaces13user_provider12UserProvider11update_user00Be_
FNDA:0,_RNCNCNCNvXs_NtNtNtCs16bWprmmhjH_5oauth8adapters8keycloak16keycloak_adapterNtBa_19KeycloakUserAdapterNtNtNtNtBg_4core10interfaces13user_provider12UserProvider11update_user000Bg_
FNDA:0,_RNCNCNvXs_NtNtNtCs16bWprmmhjH_5oauth8adapters8keycloak16keycloak_adapterNtB8_19KeycloakUserAdapterNtNtNtNtBe_4core10interfaces13user_provider12UserProvider11update_user0s_0Be_
FNDA:0,_RNCNCNCNvXs_NtNtNtCs16bWprmmhjH_5oauth8adapters8keycloak16keycloak_adapterNtBa_19KeycloakUserAdapterNtNtNtNtBg_4core10interfaces13user_provider12UserProvider11update_user0s_00Bg_
FNDA:0,_RNCNCNvXs_NtNtNtCs16bWprmmhjH_5oauth8adapters8keycloak16keycloak_adapterNtB8_19KeycloakUserAdapterNtNtNtNtBe_4core10interfaces13user_provider12UserProvider11update_user0s0_0Be_
FNDA:0,_RNCNCNCNvXs_NtNtNtCs16bWprmmhjH_5oauth8adapters8keycloak16keycloak_adapterNtBa_19KeycloakUserAdapterNtNtNtNtBg_4core10interfaces13user_provider12UserProvider11update_user0s0_00Bg_
FNDA:0,_RNCNCNvXs_NtNtNtCs16bWprmmhjH_5oauth8adapters8keycloak16keycloak_adapterNtB8_19KeycloakUserAdapterNtNtNtNtBe_4core10interfaces13user_provider12UserProvider11update_user0s1_0Be_
FNDA:0,_RNvXs_NtNtNtCs16bWprmmhjH_5oauth8adapters8keycloak16keycloak_adapterNtB4_19KeycloakUserAdapterNtNtNtNtBa_4core10interfaces13user_provider12UserProvider15update_password
FNDA:0,_RNCNvXs_NtNtNtCs16bWprmmhjH_5oauth8adapters8keycloak16keycloak_adapterNtB6_19KeycloakUserAdapterNtNtNtNtBc_4core10interfaces13user_provider12UserProvider15update_password0Bc_
FNDA:0,_RNCNCNvXs_NtNtNtCs16bWprmmhjH_5oauth8adapters8keycloak16keycloak_adapterNtB8_19KeycloakUserAdapterNtNtNtNtBe_4core10interfaces13user_provider12UserProvider15update_password00Be_
FNDA:0,_RNCNCNCNvXs_NtNtNtCs16bWprmmhjH_5oauth8adapters8keycloak16keycloak_adapterNtBa_19KeycloakUserAdapterNtNtNtNtBg_4core10interfaces13user_provider12UserProvider15update_password000Bg_
FNDA:0,_RNCNCNvXs_NtNtNtCs16bWprmmhjH_5oauth8adapters8keycloak16keycloak_adapterNtB8_19KeycloakUserAdapterNtNtNtNtBe_4core10interfaces13user_provider12UserProvider15update_password0s_0Be_
FNDA:0,_RNvXs_NtNtNtCs16bWprmmhjH_5oauth8adapters8keycloak16keycloak_adapterNtB4_19KeycloakUserAdapterNtNtNtNtBa_4core10interfaces13user_provider12UserProvider11delete_user
FNDA:0,_RNCNvXs_NtNtNtCs16bWprmmhjH_5oauth8adapters8keycloak16keycloak_adapterNtB6_19KeycloakUserAdapterNtNtNtNtBc_4core10interfaces13user_provider12UserProvider11delete_user0Bc_
FNDA:0,_RNCNCNvXs_NtNtNtCs16bWprmmhjH_5oauth8adapters8keycloak16keycloak_adapterNtB8_19KeycloakUserAdapterNtNtNtNtBe_4core10interfaces13user_provider12UserProvider11delete_user00Be_
FNDA:0,_RNCNCNCNvXs_NtNtNtCs16bWprmmhjH_5oauth8adapters8keycloak16keycloak_adapterNtBa_19KeycloakUserAdapterNtNtNtNtBg_4core10interfaces13user_provider12UserProvider11delete_user000Bg_
FNDA:0,_RNCNCNvXs_NtNtNtCs16bWprmmhjH_5oauth8adapters8keycloak16keycloak_adapterNtB8_19KeycloakUserAdapterNtNtNtNtBe_4core10interfaces13user_provider12UserProvider11delete_user0s_0Be_
FNDA:0,_RNvXs_NtNtNtCs16bWprmmhjH_5oauth8adapters8keycloak16keycloak_adapterNtB4_19KeycloakUserAdapterNtNtNtNtBa_4core10interfaces13user_provider12UserProvider8add_role
FNDA:0,_RNCNvXs_NtNtNtCs16bWprmmhjH_5oauth8adapters8keycloak16keycloak_adapterNtB6_19KeycloakUserAdapterNtNtNtNtBc_4core10interfaces13user_provider12UserProvider8add_role0Bc_
FNDA:0,_RNCNCNvXs_NtNtNtCs16bWprmmhjH_5oauth8adapters8keycloak16keycloak_adapterNtB8_19KeycloakUserAdapterNtNtNtNtBe_4core10interfaces13user_provider12UserProvider8add_role00Be_
FNDA:0,_RNCNCNCNvXs_NtNtNtCs16bWprmmhjH_5oauth8adapters8keycloak16keycloak_adapterNtBa_19KeycloakUserAdapterNtNtNtNtBg_4core10interfaces13user_provider12UserProvider8add_role000Bg_
FNDA:0,_RNCNCNvXs_NtNtNtCs16bWprmmhjH_5oauth8adapters8keycloak16keycloak_adapterNtB8_19KeycloakUserAdapterNtNtNtNtBe_4core10interfaces13user_provider12UserProvider8add_role0s_0Be_
FNDA:0,_RNCNCNCNvXs_NtNtNtCs16bWprmmhjH_5oauth8adapters8keycloak16keycloak_adapterNtBa_19KeycloakUserAdapterNtNtNtNtBg_4core10interfaces13user_provider12UserProvider8add_role0s_00Bg_
FNDA:0,_RNCNCNvXs_NtNtNtCs16bWprmmhjH_5oauth8adapters8keycloak16keycloak_adapterNtB8_19KeycloakUserAdapterNtNtNtNtBe_4core10interfaces13user_provider12UserProvider8add_role0s0_0Be_
FNDA:0,_RNCNCNvXs_NtNtNtCs16bWprmmhjH_5oauth8adapters8keycloak16keycloak_adapterNtB8_19KeycloakUserAdapterNtNtNtNtBe_4core10interfaces13user_provider12UserProvider8add_role0s1_0Be_
FNDA:0,_RNCNCNvXs_NtNtNtCs16bWprmmhjH_5oauth8adapters8keycloak16keycloak_adapterNtB8_19KeycloakUserAdapterNtNtNtNtBe_4core10interfaces13user_provider12UserProvider8add_role0s2_0Be_
FNDA:0,_RNCNCNCNvXs_NtNtNtCs16bWprmmhjH_5oauth8adapters8keycloak16keycloak_adapterNtBa_19KeycloakUserAdapterNtNtNtNtBg_4core10interfaces13user_provider12UserProvider8add_role0s2_00Bg_
FNDA:0,_RNCNCNCNCNvXs_NtNtNtCs16bWprmmhjH_5oauth8adapters8keycloak16keycloak_adapterNtBc_19KeycloakUserAdapterNtNtNtNtBi_4core10interfaces13user_provider12UserProvider8add_role0s2_000Bi_
FNDA:0,_RNCNCNvXs_NtNtNtCs16bWprmmhjH_5oauth8adapters8keycloak16keycloak_adapterNtB8_19KeycloakUserAdapterNtNtNtNtBe_4core10interfaces13user_provider12UserProvider8add_role0s5_0Be_
FNDA:0,_RNCNCNvXs_NtNtNtCs16bWprmmhjH_5oauth8adapters8keycloak16keycloak_adapterNtB8_19KeycloakUserAdapterNtNtNtNtBe_4core10interfaces13user_provider12UserProvider8add_role0s6_0Be_
FNDA:0,_RNCNCNvXs_NtNtNtCs16bWprmmhjH_5oauth8adapters8keycloak16keycloak_adapterNtB8_19KeycloakUserAdapterNtNtNtNtBe_4core10interfaces13user_provider12UserProvider8add_role0s3_0Be_
FNDA:0,_RNCNCNCNvXs_NtNtNtCs16bWprmmhjH_5oauth8adapters8keycloak16keycloak_adapterNtBa_19KeycloakUserAdapterNtNtNtNtBg_4core10interfaces13user_provider12UserProvider8add_role0s3_00Bg_
FNDA:0,_RNCNCNvXs_NtNtNtCs16bWprmmhjH_5oauth8adapters8keycloak16keycloak_adapterNtB8_19KeycloakUserAdapterNtNtNtNtBe_4core10interfaces13user_provider12UserProvider8add_role0s4_0Be_
FNDA:0,_RNvXs_NtNtNtCs16bWprmmhjH_5oauth8adapters8keycloak16keycloak_adapterNtB4_19KeycloakUserAdapterNtNtNtNtBa_4core10interfaces13user_provider12UserProvider11remove_role
FNDA:0,_RNCNvXs_NtNtNtCs16bWprmmhjH_5oauth8adapters8keycloak16keycloak_adapterNtB6_19KeycloakUserAdapterNtNtNtNtBc_4core10interfaces13user_provider12UserProvider11remove_role0Bc_
FNDA:0,_RNCNCNvXs_NtNtNtCs16bWprmmhjH_5oauth8adapters8keycloak16keycloak_adapterNtB8_19KeycloakUserAdapterNtNtNtNtBe_4core10interfaces13user_provider12UserProvider11remove_role00Be_
FNDA:0,_RNCNCNCNvXs_NtNtNtCs16bWprmmhjH_5oauth8adapters8keycloak16keycloak_adapterNtBa_19KeycloakUserAdapterNtNtNtNtBg_4core10interfaces13user_provider12UserProvider11remove_role000Bg_
FNDA:0,_RNCNCNvXs_NtNtNtCs16bWprmmhjH_5oauth8adapters8keycloak16keycloak_adapterNtB8_19KeycloakUserAdapterNtNtNtNtBe_4core10interfaces13user_provider12UserProvider11remove_role0s_0Be_
FNDA:0,_RNCNCNCNvXs_NtNtNtCs16bWprmmhjH_5oauth8adapters8keycloak16keycloak_adapterNtBa_19KeycloakUserAdapterNtNtNtNtBg_4core10interfaces13user_provider12UserProvider11remove_role0s_00Bg_
FNDA:0,_RNCNCNvXs_NtNtNtCs16bWprmmhjH_5oauth8adapters8keycloak16keycloak_adapterNtB8_19KeycloakUserAdapterNtNtNtNtBe_4core10interfaces13user_provider12UserProvider11remove_role0s2_0Be_
FNDA:0,_RNCNCNvXs_NtNtNtCs16bWprmmhjH_5oauth8adapters8keycloak16keycloak_adapterNtB8_19KeycloakUserAdapterNtNtNtNtBe_4core10interfaces13user_provider12UserProvider11remove_role0s3_0Be_
FNDA:0,_RNCNCNvXs_NtNtNtCs16bWprmmhjH_5oauth8adapters8keycloak16keycloak_adapterNtB8_19KeycloakUserAdapterNtNtNtNtBe_4core10interfaces13user_provider12UserProvider11remove_role0s0_0Be_
FNDA:0,_RNCNCNCNvXs_NtNtNtCs16bWprmmhjH_5oauth8adapters8keycloak16keycloak_adapterNtBa_19KeycloakUserAdapterNtNtNtNtBg_4core10interfaces13user_provider12UserProvider11remove_role0s0_00Bg_
FNDA:0,_RNCNCNvXs_NtNtNtCs16bWprmmhjH_5oauth8adapters8keycloak16keycloak_adapterNtB8_19KeycloakUserAdapterNtNtNtNtBe_4core10interfaces13user_provider12UserProvider11remove_role0s1_0Be_
FNDA:0,_RNvXs0_NtNtNtCs16bWprmmhjH_5oauth8adapters8keycloak16keycloak_adapterNtB5_19KeycloakRoleAdapterNtNtNtNtBb_4core10interfaces13role_provider12RoleProvider11create_role
FNDA:0,_RNCNvXs0_NtNtNtCs16bWprmmhjH_5oauth8adapters8keycloak16keycloak_adapterNtB7_19KeycloakRoleAdapterNtNtNtNtBd_4core10interfaces13role_provider12RoleProvider11create_role0Bd_
FNDA:0,_RNCNCNvXs0_NtNtNtCs16bWprmmhjH_5oauth8adapters8keycloak16keycloak_adapterNtB9_19KeycloakRoleAdapterNtNtNtNtBf_4core10interfaces13role_provider12RoleProvider11create_role00Bf_
FNDA:0,_RNCNCNCNvXs0_NtNtNtCs16bWprmmhjH_5oauth8adapters8keycloak16keycloak_adapterNtBb_19KeycloakRoleAdapterNtNtNtNtBh_4core10interfaces13role_provider12RoleProvider11create_role000Bh_
FNDA:0,_RNCNCNvXs0_NtNtNtCs16bWprmmhjH_5oauth8adapters8keycloak16keycloak_adapterNtB9_19KeycloakRoleAdapterNtNtNtNtBf_4core10interfaces13role_provider12RoleProvider11create_role0s_0Bf_
FNDA:0,_RNCNCNvXs0_NtNtNtCs16bWprmmhjH_5oauth8adapters8keycloak16keycloak_adapterNtB9_19KeycloakRoleAdapterNtNtNtNtBf_4core10interfaces13role_provider12RoleProvider11create_role0s0_0Bf_
FNDA:0,_RNvXs0_NtNtNtCs16bWprmmhjH_5oauth8adapters8keycloak16keycloak_adapterNtB5_19KeycloakRoleAdapterNtNtNtNtBb_4core10interfaces13role_provider12RoleProvider9get_roles
FNDA:0,_RNCNvXs0_NtNtNtCs16bWprmmhjH_5oauth8adapters8keycloak16keycloak_adapterNtB7_19KeycloakRoleAdapterNtNtNtNtBd_4core10interfaces13role_provider12RoleProvider9get_roles0Bd_
FNDA:0,_RNCNCNvXs0_NtNtNtCs16bWprmmhjH_5oauth8adapters8keycloak16keycloak_adapterNtB9_19KeycloakRoleAdapterNtNtNtNtBf_4core10interfaces13role_provider12RoleProvider9get_roles00Bf_
FNDA:0,_RNCNCNCNvXs0_NtNtNtCs16bWprmmhjH_5oauth8adapters8keycloak16keycloak_adapterNtBb_19KeycloakRoleAdapterNtNtNtNtBh_4core10interfaces13role_provider12RoleProvider9get_roles000Bh_
FNDA:0,_RNCNCNvXs0_NtNtNtCs16bWprmmhjH_5oauth8adapters8keycloak16keycloak_adapterNtB9_19KeycloakRoleAdapterNtNtNtNtBf_4core10interfaces13role_provider12RoleProvider9get_roles0s_0Bf_
FNDA:0,_RNCNCNCNvXs0_NtNtNtCs16bWprmmhjH_5oauth8adapters8keycloak16keycloak_adapterNtBb_19KeycloakRoleAdapterNtNtNtNtBh_4core10interfaces13role_provider12RoleProvider9get_roles0s_00Bh_
FNDA:0,_RNCNCNvXs0_NtNtNtCs16bWprmmhjH_5oauth8adapters8keycloak16keycloak_adapterNtB9_19KeycloakRoleAdapterNtNtNtNtBf_4core10interfaces13role_provider12RoleProvider9get_roles0s0_0Bf_
FNDA:0,_RNCNCNCNvXs0_NtNtNtCs16bWprmmhjH_5oauth8adapters8keycloak16keycloak_adapterNtBb_19KeycloakRoleAdapterNtNtNtNtBh_4core10interfaces13role_provider12RoleProvider9get_roles0s0_00Bh_
FNDA:0,_RNCNCNCNvXs0_NtNtNtCs16bWprmmhjH_5oauth8adapters8keycloak16keycloak_adapterNtBb_19KeycloakRoleAdapterNtNtNtNtBh_4core10interfaces13role_provider12RoleProvider9get_roles0s0_0s_0Bh_
FNDA:0,_RNCNCNCNvXs0_NtNtNtCs16bWprmmhjH_5oauth8adapters8keycloak16keycloak_adapterNtBb_19KeycloakRoleAdapterNtNtNtNtBh_4core10interfaces13role_provider12RoleProvider9get_roles0s0_0s0_0Bh_
FNDA:0,_RNCNCNCNCNvXs0_NtNtNtCs16bWprmmhjH_5oauth8adapters8keycloak16keycloak_adapterNtBd_19KeycloakRoleAdapterNtNtNtNtBj_4core10interfaces13role_provider12RoleProvider9get_roles0s0_0s0_00Bj_
FNDA:0,_RNCNCNCNCNCNvXs0_NtNtNtCs16bWprmmhjH_5oauth8adapters8keycloak16keycloak_adapterNtBf_19KeycloakRoleAdapterNtNtNtNtBl_4core10interfaces13role_provider12RoleProvider9get_roles0s0_0s0_000Bl_
FNDA:0,_RNCNCNvXs0_NtNtNtCs16bWprmmhjH_5oauth8adapters8keycloak16keycloak_adapterNtB9_19KeycloakRoleAdapterNtNtNtNtBf_4core10interfaces13role_provider12RoleProvider9get_roles0s1_0Bf_
FNDA:0,_RNCNCNCNvXs0_NtNtNtCs16bWprmmhjH_5oauth8adapters8keycloak16keycloak_adapterNtBb_19KeycloakRoleAdapterNtNtNtNtBh_4core10interfaces13role_provider12RoleProvider9get_roles0s1_00Bh_
FNDA:0,_RNCNCNCNvXs0_NtNtNtCs16bWprmmhjH_5oauth8adapters8keycloak16keycloak_adapterNtBb_19KeycloakRoleAdapterNtNtNtNtBh_4core10interfaces13role_provider12RoleProvider9get_roles0s1_0s_0Bh_
FNDA:0,_RNCNCNCNvXs0_NtNtNtCs16bWprmmhjH_5oauth8adapters8keycloak16keycloak_adapterNtBb_19KeycloakRoleAdapterNtNtNtNtBh_4core10interfaces13role_provider12RoleProvider9get_roles0s1_0s0_0Bh_
FNDA:0,_RNCNCNvXs0_NtNtNtCs16bWprmmhjH_5oauth8adapters8keycloak16keycloak_adapterNtB9_19KeycloakRoleAdapterNtNtNtNtBf_4core10interfaces13role_provider12RoleProvider9get_roles0s2_0Bf_
FNDA:0,_RNvXs0_NtNtNtCs16bWprmmhjH_5oauth8adapters8keycloak16keycloak_adapterNtB5_19KeycloakRoleAdapterNtNtNtNtBb_4core10interfaces13role_provider12RoleProvider8get_role
FNDA:0,_RNCNvXs0_NtNtNtCs16bWprmmhjH_5oauth8adapters8keycloak16keycloak_adapterNtB7_19KeycloakRoleAdapterNtNtNtNtBd_4core10interfaces13role_provider12RoleProvider8get_role0Bd_
FNDA:0,_RNCNCNvXs0_NtNtNtCs16bWprmmhjH_5oauth8adapters8keycloak16keycloak_adapterNtB9_19KeycloakRoleAdapterNtNtNtNtBf_4core10interfaces13role_provider12RoleProvider8get_role00Bf_
FNDA:0,_RNCNCNCNvXs0_NtNtNtCs16bWprmmhjH_5oauth8adapters8keycloak16keycloak_adapterNtBb_19KeycloakRoleAdapterNtNtNtNtBh_4core10interfaces13role_provider12RoleProvider8get_role000Bh_
FNDA:0,_RNCNCNvXs0_NtNtNtCs16bWprmmhjH_5oauth8adapters8keycloak16keycloak_adapterNtB9_19KeycloakRoleAdapterNtNtNtNtBf_4core10interfaces13role_provider12RoleProvider8get_role0s_0Bf_
FNDA:0,_RNCNCNCNvXs0_NtNtNtCs16bWprmmhjH_5oauth8adapters8keycloak16keycloak_adapterNtBb_19KeycloakRoleAdapterNtNtNtNtBh_4core10interfaces13role_provider12RoleProvider8get_role0s_00Bh_
FNDA:0,_RNCNCNvXs0_NtNtNtCs16bWprmmhjH_5oauth8adapters8keycloak16keycloak_adapterNtB9_19KeycloakRoleAdapterNtNtNtNtBf_4core10interfaces13role_provider12RoleProvider8get_role0s0_0Bf_
FNDA:0,_RNCNCNvXs0_NtNtNtCs16bWprmmhjH_5oauth8adapters8keycloak16keycloak_adapterNtB9_19KeycloakRoleAdapterNtNtNtNtBf_4core10interfaces13role_provider12RoleProvider8get_role0s1_0Bf_
FNDA:0,_RNCNCNvXs0_NtNtNtCs16bWprmmhjH_5oauth8adapters8keycloak16keycloak_adapterNtB9_19KeycloakRoleAdapterNtNtNtNtBf_4core10interfaces13role_provider12RoleProvider8get_role0s2_0Bf_
FNDA:0,_RNCNCNCNvXs0_NtNtNtCs16bWprmmhjH_5oauth8adapters8keycloak16keycloak_adapterNtBb_19KeycloakRoleAdapterNtNtNtNtBh_4core10interfaces13role_provider12RoleProvider8get_role0s2_00Bh_
FNDA:0,_RNCNCNCNCNvXs0_NtNtNtCs16bWprmmhjH_5oauth8adapters8keycloak16keycloak_adapterNtBd_19KeycloakRoleAdapterNtNtNtNtBj_4core10interfaces13role_provider12RoleProvider8get_role0s2_000Bj_
FNDA:0,_RNCNCNvXs0_NtNtNtCs16bWprmmhjH_5oauth8adapters8keycloak16keycloak_adapterNtB9_19KeycloakRoleAdapterNtNtNtNtBf_4core10interfaces13role_provider12RoleProvider8get_role0s3_0Bf_
FNDA:0,_RNCNCNvXs0_NtNtNtCs16bWprmmhjH_5oauth8adapters8keycloak16keycloak_adapterNtB9_19KeycloakRoleAdapterNtNtNtNtBf_4core10interfaces13role_provider12RoleProvider8get_role0s4_0Bf_
FNDA:0,_RNCNCNvXs0_NtNtNtCs16bWprmmhjH_5oauth8adapters8keycloak16keycloak_adapterNtB9_19KeycloakRoleAdapterNtNtNtNtBf_4core10interfaces13role_provider12RoleProvider8get_role0s5_0Bf_
FNDA:0,_RNCNCNvXs0_NtNtNtCs16bWprmmhjH_5oauth8adapters8keycloak16keycloak_adapterNtB9_19KeycloakRoleAdapterNtNtNtNtBf_4core10interfaces13role_provider12RoleProvider8get_role0s6_0Bf_
FNDA:0,_RNvXs0_NtNtNtCs16bWprmmhjH_5oauth8adapters8keycloak16keycloak_adapterNtB5_19KeycloakRoleAdapterNtNtNtNtBb_4core10interfaces13role_provider12RoleProvider11update_role
FNDA:0,_RNCNvXs0_NtNtNtCs16bWprmmhjH_5oauth8adapters8keycloak16keycloak_adapterNtB7_19KeycloakRoleAdapterNtNtNtNtBd_4core10interfaces13role_provider12RoleProvider11update_role0Bd_
FNDA:0,_RNCNCNvXs0_NtNtNtCs16bWprmmhjH_5oauth8adapters8keycloak16keycloak_adapterNtB9_19KeycloakRoleAdapterNtNtNtNtBf_4core10interfaces13role_provider12RoleProvider11update_role00Bf_
FNDA:0,_RNCNCNCNvXs0_NtNtNtCs16bWprmmhjH_5oauth8adapters8keycloak16keycloak_adapterNtBb_19KeycloakRoleAdapterNtNtNtNtBh_4core10interfaces13role_provider12RoleProvider11update_role000Bh_
FNDA:0,_RNCNCNvXs0_NtNtNtCs16bWprmmhjH_5oauth8adapters8keycloak16keycloak_adapterNtB9_19KeycloakRoleAdapterNtNtNtNtBf_4core10interfaces13role_provider12RoleProvider11update_role0s_0Bf_
FNDA:0,_RNvXs0_NtNtNtCs16bWprmmhjH_5oauth8adapters8keycloak16keycloak_adapterNtB5_19KeycloakRoleAdapterNtNtNtNtBb_4core10interfaces13role_provider12RoleProvider10patch_role
FNDA:0,_RNCNvXs0_NtNtNtCs16bWprmmhjH_5oauth8adapters8keycloak16keycloak_adapterNtB7_19KeycloakRoleAdapterNtNtNtNtBd_4core10interfaces13role_provider12RoleProvider10patch_role0Bd_
FNDA:0,_RNCNCNvXs0_NtNtNtCs16bWprmmhjH_5oauth8adapters8keycloak16keycloak_adapterNtB9_19KeycloakRoleAdapterNtNtNtNtBf_4core10interfaces13role_provider12RoleProvider10patch_role00Bf_
FNDA:0,_RNCNCNCNvXs0_NtNtNtCs16bWprmmhjH_5oauth8adapters8keycloak16keycloak_adapterNtBb_19KeycloakRoleAdapterNtNtNtNtBh_4core10interfaces13role_provider12RoleProvider10patch_role000Bh_
FNDA:0,_RNCNCNvXs0_NtNtNtCs16bWprmmhjH_5oauth8adapters8keycloak16keycloak_adapterNtB9_19KeycloakRoleAdapterNtNtNtNtBf_4core10interfaces13role_provider12RoleProvider10patch_role0s_0Bf_
FNDA:0,_RNvXs0_NtNtNtCs16bWprmmhjH_5oauth8adapters8keycloak16keycloak_adapterNtB5_19KeycloakRoleAdapterNtNtNtNtBb_4core10interfaces13role_provider12RoleProvider11delete_role
FNDA:0,_RNCNvXs0_NtNtNtCs16bWprmmhjH_5oauth8adapters8keycloak16keycloak_adapterNtB7_19KeycloakRoleAdapterNtNtNtNtBd_4core10interfaces13role_provider12RoleProvider11delete_role0Bd_
FNDA:0,_RNCNCNvXs0_NtNtNtCs16bWprmmhjH_5oauth8adapters8keycloak16keycloak_adapterNtB9_19KeycloakRoleAdapterNtNtNtNtBf_4core10interfaces13role_provider12RoleProvider11delete_role00Bf_
FNDA:0,_RNCNCNCNvXs0_NtNtNtCs16bWprmmhjH_5oauth8adapters8keycloak16keycloak_adapterNtBb_19KeycloakRoleAdapterNtNtNtNtBh_4core10interfaces13role_provider12RoleProvider11delete_role000Bh_
FNDA:0,_RNCNCNvXs0_NtNtNtCs16bWprmmhjH_5oauth8adapters8keycloak16keycloak_adapterNtB9_19KeycloakRoleAdapterNtNtNtNtBf_4core10interfaces13role_provider12RoleProvider11delete_role0s_0Bf_
FNF:150
FNH:0
DA:26,0
DA:27,0
DA:28,0
DA:29,0
DA:30,0
DA:31,0
DA:32,0
DA:33,0
DA:34,0
DA:35,0
DA:36,0
DA:37,0
DA:38,0
DA:39,0
DA:40,0
DA:41,0
DA:42,0
DA:43,0
DA:44,0
DA:45,0
DA:46,0
DA:47,0
DA:48,0
DA:49,0
DA:50,0
DA:51,0
DA:52,0
DA:53,0
DA:54,0
DA:55,0
DA:56,0
DA:57,0
DA:58,0
DA:59,0
DA:60,0
DA:61,0
DA:62,0
DA:63,0
DA:64,0
DA:65,0
DA:66,0
DA:67,0
DA:68,0
DA:69,0
DA:70,0
DA:71,0
DA:72,0
DA:73,0
DA:78,0
DA:79,0
DA:80,0
DA:81,0
DA:82,0
DA:83,0
DA:84,0
DA:85,0
DA:86,0
DA:87,0
DA:88,0
DA:89,0
DA:90,0
DA:91,0
DA:92,0
DA:93,0
DA:94,0
DA:95,0
DA:96,0
DA:97,0
DA:98,0
DA:99,0
DA:100,0
DA:101,0
DA:102,0
DA:103,0
DA:104,0
DA:105,0
DA:106,0
DA:107,0
DA:108,0
DA:109,0
DA:110,0
DA:111,0
DA:112,0
DA:113,0
DA:114,0
DA:115,0
DA:116,0
DA:117,0
DA:118,0
DA:119,0
DA:120,0
DA:121,0
DA:122,0
DA:123,0
DA:124,0
DA:125,0
DA:126,0
DA:127,0
DA:128,0
DA:129,0
DA:130,0
DA:131,0
DA:132,0
DA:133,0
DA:134,0
DA:135,0
DA:136,0
DA:137,0
DA:138,0
DA:139,0
DA:140,0
DA:141,0
DA:142,0
DA:143,0
DA:144,0
DA:145,0
DA:146,0
DA:147,0
DA:148,0
DA:149,0
DA:150,0
DA:152,0
DA:153,0
DA:154,0
DA:155,0
DA:156,0
DA:157,0
DA:158,0
DA:159,0
DA:160,0
DA:161,0
DA:162,0
DA:163,0
DA:164,0
DA:165,0
DA:166,0
DA:167,0
DA:168,0
DA:169,0
DA:170,0
DA:171,0
DA:172,0
DA:173,0
DA:174,0
DA:175,0
DA:176,0
DA:177,0
DA:178,0
DA:179,0
DA:180,0
DA:181,0
DA:182,0
DA:183,0
DA:184,0
DA:185,0
DA:186,0
DA:187,0
DA:188,0
DA:189,0
DA:190,0
DA:191,0
DA:192,0
DA:193,0
DA:194,0
DA:195,0
DA:196,0
DA:197,0
DA:198,0
DA:199,0
DA:200,0
DA:201,0
DA:202,0
DA:203,0
DA:204,0
DA:205,0
DA:206,0
DA:207,0
DA:208,0
DA:209,0
DA:210,0
DA:211,0
DA:212,0
DA:213,0
DA:214,0
DA:215,0
DA:216,0
DA:217,0
DA:218,0
DA:219,0
DA:220,0
DA:221,0
DA:222,0
DA:223,0
DA:224,0
DA:225,0
DA:226,0
DA:227,0
DA:228,0
DA:229,0
DA:230,0
DA:231,0
DA:232,0
DA:233,0
DA:234,0
DA:235,0
DA:236,0
DA:237,0
DA:239,0
DA:240,0
DA:241,0
DA:242,0
DA:243,0
DA:244,0
DA:245,0
DA:246,0
DA:247,0
DA:248,0
DA:249,0
DA:250,0
DA:251,0
DA:252,0
DA:253,0
DA:254,0
DA:255,0
DA:256,0
DA:257,0
DA:258,0
DA:259,0
DA:260,0
DA:261,0
DA:262,0
DA:263,0
DA:264,0
DA:265,0
DA:266,0
DA:267,0
DA:268,0
DA:269,0
DA:270,0
DA:271,0
DA:272,0
DA:273,0
DA:274,0
DA:275,0
DA:276,0
DA:277,0
DA:278,0
DA:279,0
DA:280,0
DA:281,0
DA:282,0
DA:283,0
DA:284,0
DA:285,0
DA:286,0
DA:287,0
DA:288,0
DA:289,0
DA:290,0
DA:291,0
DA:292,0
DA:293,0
DA:294,0
DA:295,0
DA:296,0
DA:297,0
DA:298,0
DA:299,0
DA:300,0
DA:301,0
DA:302,0
DA:303,0
DA:304,0
DA:305,0
DA:306,0
DA:307,0
DA:308,0
DA:309,0
DA:310,0
DA:311,0
DA:312,0
DA:313,0
DA:314,0
DA:315,0
DA:316,0
DA:317,0
DA:318,0
DA:319,0
DA:320,0
DA:321,0
DA:322,0
DA:323,0
DA:324,0
DA:326,0
DA:327,0
DA:328,0
DA:329,0
DA:330,0
DA:331,0
DA:332,0
DA:333,0
DA:334,0
DA:335,0
DA:336,0
DA:337,0
DA:338,0
DA:339,0
DA:340,0
DA:341,0
DA:342,0
DA:343,0
DA:344,0
DA:345,0
DA:346,0
DA:347,0
DA:348,0
DA:349,0
DA:350,0
DA:351,0
DA:352,0
DA:353,0
DA:354,0
DA:355,0
DA:356,0
DA:357,0
DA:358,0
DA:359,0
DA:360,0
DA:361,0
DA:362,0
DA:363,0
DA:364,0
DA:365,0
DA:366,0
DA:367,0
DA:368,0
DA:369,0
DA:370,0
DA:371,0
DA:372,0
DA:373,0
DA:374,0
DA:375,0
DA:376,0
DA:377,0
DA:378,0
DA:379,0
DA:380,0
DA:381,0
DA:382,0
DA:383,0
DA:384,0
DA:385,0
DA:386,0
DA:387,0
DA:388,0
DA:389,0
DA:390,0
DA:391,0
DA:392,0
DA:393,0
DA:394,0
DA:395,0
DA:396,0
DA:397,0
DA:398,0
DA:399,0
DA:400,0
DA:401,0
DA:402,0
DA:403,0
DA:404,0
DA:405,0
DA:406,0
DA:407,0
DA:408,0
DA:409,0
DA:410,0
DA:411,0
DA:412,0
DA:413,0
DA:414,0
DA:415,0
DA:416,0
DA:417,0
DA:418,0
DA:419,0
DA:420,0
DA:421,0
DA:422,0
DA:423,0
DA:424,0
DA:425,0
DA:426,0
DA:427,0
DA:428,0
DA:429,0
DA:430,0
DA:431,0
DA:433,0
DA:434,0
DA:435,0
DA:436,0
DA:437,0
DA:438,0
DA:439,0
DA:440,0
DA:441,0
DA:442,0
DA:443,0
DA:444,0
DA:445,0
DA:446,0
DA:447,0
DA:448,0
DA:449,0
DA:450,0
DA:451,0
DA:452,0
DA:453,0
DA:454,0
DA:455,0
DA:456,0
DA:457,0
DA:458,0
DA:459,0
DA:460,0
DA:461,0
DA:462,0
DA:463,0
DA:464,0
DA:465,0
DA:466,0
DA:467,0
DA:468,0
DA:469,0
DA:470,0
DA:471,0
DA:472,0
DA:473,0
DA:474,0
DA:475,0
DA:476,0
DA:477,0
DA:478,0
DA:479,0
DA:480,0
DA:481,0
DA:482,0
DA:483,0
DA:484,0
DA:485,0
DA:486,0
DA:488,0
DA:489,0
DA:490,0
DA:491,0
DA:492,0
DA:493,0
DA:494,0
DA:495,0
DA:496,0
DA:497,0
DA:498,0
DA:499,0
DA:500,0
DA:501,0
DA:502,0
DA:503,0
DA:504,0
DA:505,0
DA:506,0
DA:507,0
DA:508,0
DA:509,0
DA:510,0
DA:511,0
DA:512,0
DA:513,0
DA:514,0
DA:515,0
DA:516,0
DA:517,0
DA:518,0
DA:519,0
DA:520,0
DA:521,0
DA:522,0
DA:523,0
DA:524,0
DA:525,0
DA:526,0
DA:527,0
DA:528,0
DA:529,0
DA:530,0
DA:531,0
DA:532,0
DA:533,0
DA:534,0
DA:535,0
DA:536,0
DA:537,0
DA:539,0
DA:540,0
DA:541,0
DA:542,0
DA:543,0
DA:544,0
DA:545,0
DA:546,0
DA:547,0
DA:548,0
DA:549,0
DA:550,0
DA:551,0
DA:552,0
DA:553,0
DA:554,0
DA:555,0
DA:556,0
DA:557,0
DA:558,0
DA:559,0
DA:560,0
DA:561,0
DA:562,0
DA:563,0
DA:564,0
DA:565,0
DA:566,0
DA:567,0
DA:568,0
DA:569,0
DA:570,0
DA:571,0
DA:572,0
DA:573,0
DA:574,0
DA:575,0
DA:576,0
DA:577,0
DA:578,0
DA:579,0
DA:580,0
DA:581,0
DA:582,0
DA:583,0
DA:584,0
DA:585,0
DA:586,0
DA:587,0
DA:588,0
DA:589,0
DA:590,0
DA:591,0
DA:592,0
DA:593,0
DA:594,0
DA:595,0
DA:596,0
DA:597,0
DA:598,0
DA:599,0
DA:600,0
DA:601,0
DA:602,0
DA:603,0
DA:604,0
DA:605,0
DA:606,0
DA:607,0
DA:608,0
DA:609,0
DA:610,0
DA:611,0
DA:612,0
DA:613,0
DA:614,0
DA:615,0
DA:616,0
DA:617,0
DA:618,0
DA:619,0
DA:620,0
DA:621,0
DA:622,0
DA:623,0
DA:624,0
DA:625,0
DA:626,0
DA:627,0
DA:628,0
DA:629,0
DA:630,0
DA:631,0
DA:632,0
DA:633,0
DA:634,0
DA:635,0
DA:636,0
DA:637,0
DA:638,0
DA:639,0
DA:640,0
DA:641,0
DA:642,0
DA:643,0
DA:644,0
DA:645,0
DA:646,0
DA:647,0
DA:648,0
DA:649,0
DA:650,0
DA:651,0
DA:652,0
DA:654,0
DA:655,0
DA:656,0
DA:657,0
DA:658,0
DA:659,0
DA:660,0
DA:661,0
DA:662,0
DA:663,0
DA:664,0
DA:665,0
DA:666,0
DA:667,0
DA:668,0
DA:669,0
DA:670,0
DA:671,0
DA:672,0
DA:673,0
DA:674,0
DA:675,0
DA:676,0
DA:677,0
DA:678,0
DA:679,0
DA:680,0
DA:681,0
DA:682,0
DA:683,0
DA:684,0
DA:685,0
DA:686,0
DA:687,0
DA:688,0
DA:689,0
DA:690,0
DA:691,0
DA:692,0
DA:693,0
DA:694,0
DA:695,0
DA:696,0
DA:697,0
DA:698,0
DA:699,0
DA:700,0
DA:701,0
DA:702,0
DA:703,0
DA:704,0
DA:705,0
DA:706,0
DA:707,0
DA:708,0
DA:709,0
DA:710,0
DA:711,0
DA:712,0
DA:713,0
DA:714,0
DA:715,0
DA:716,0
DA:717,0
DA:718,0
DA:719,0
DA:720,0
DA:721,0
DA:722,0
DA:723,0
DA:724,0
DA:725,0
DA:726,0
DA:727,0
DA:728,0
DA:729,0
DA:730,0
DA:731,0
DA:732,0
DA:733,0
DA:734,0
DA:735,0
DA:736,0
DA:737,0
DA:738,0
DA:739,0
DA:740,0
DA:741,0
DA:742,0
DA:743,0
DA:744,0
DA:745,0
DA:746,0
DA:747,0
DA:748,0
DA:749,0
DA:750,0
DA:751,0
DA:756,0
DA:757,0
DA:758,0
DA:759,0
DA:760,0
DA:761,0
DA:762,0
DA:763,0
DA:764,0
DA:765,0
DA:766,0
DA:767,0
DA:768,0
DA:769,0
DA:770,0
DA:771,0
DA:772,0
DA:773,0
DA:774,0
DA:775,0
DA:776,0
DA:777,0
DA:778,0
DA:779,0
DA:780,0
DA:781,0
DA:782,0
DA:783,0
DA:784,0
DA:785,0
DA:786,0
DA:787,0
DA:788,0
DA:789,0
DA:790,0
DA:791,0
DA:792,0
DA:793,0
DA:794,0
DA:795,0
DA:796,0
DA:797,0
DA:798,0
DA:799,0
DA:800,0
DA:801,0
DA:802,0
DA:803,0
DA:804,0
DA:805,0
DA:806,0
DA:808,0
DA:809,0
DA:810,0
DA:811,0
DA:812,0
DA:813,0
DA:814,0
DA:815,0
DA:816,0
DA:817,0
DA:818,0
DA:819,0
DA:820,0
DA:821,0
DA:822,0
DA:823,0
DA:824,0
DA:825,0
DA:826,0
DA:827,0
DA:828,0
DA:829,0
DA:830,0
DA:831,0
DA:832,0
DA:833,0
DA:834,0
DA:835,0
DA:836,0
DA:837,0
DA:838,0
DA:839,0
DA:840,0
DA:841,0
DA:842,0
DA:843,0
DA:844,0
DA:845,0
DA:846,0
DA:847,0
DA:848,0
DA:849,0
DA:850,0
DA:851,0
DA:852,0
DA:853,0
DA:854,0
DA:855,0
DA:856,0
DA:857,0
DA:858,0
DA:859,0
DA:860,0
DA:861,0
DA:862,0
DA:863,0
DA:864,0
DA:865,0
DA:866,0
DA:867,0
DA:868,0
DA:869,0
DA:870,0
DA:871,0
DA:872,0
DA:873,0
DA:874,0
DA:875,0
DA:877,0
DA:878,0
DA:879,0
DA:880,0
DA:881,0
DA:882,0
DA:883,0
DA:884,0
DA:885,0
DA:886,0
DA:887,0
DA:888,0
DA:889,0
DA:890,0
DA:891,0
DA:892,0
DA:893,0
DA:894,0
DA:895,0
DA:896,0
DA:897,0
DA:898,0
DA:899,0
DA:900,0
DA:901,0
DA:902,0
DA:903,0
DA:904,0
DA:905,0
DA:906,0
DA:907,0
DA:908,0
DA:909,0
DA:910,0
DA:911,0
DA:912,0
DA:913,0
DA:914,0
DA:915,0
DA:916,0
DA:917,0
DA:918,0
DA:919,0
DA:920,0
DA:921,0
DA:922,0
DA:923,0
DA:924,0
DA:925,0
DA:926,0
DA:927,0
DA:928,0
DA:929,0
DA:930,0
DA:931,0
DA:932,0
DA:933,0
DA:934,0
DA:935,0
DA:936,0
DA:937,0
DA:938,0
DA:939,0
DA:940,0
DA:941,0
DA:942,0
DA:943,0
DA:944,0
DA:945,0
DA:946,0
DA:947,0
DA:948,0
DA:949,0
DA:950,0
DA:951,0
DA:953,0
DA:954,0
DA:955,0
DA:956,0
DA:957,0
DA:958,0
DA:959,0
DA:960,0
DA:961,0
DA:962,0
DA:963,0
DA:964,0
DA:965,0
DA:966,0
DA:967,0
DA:968,0
DA:969,0
DA:970,0
DA:971,0
DA:972,0
DA:973,0
DA:974,0
DA:975,0
DA:976,0
DA:977,0
DA:978,0
DA:979,0
DA:980,0
DA:981,0
DA:982,0
DA:983,0
DA:984,0
DA:985,0
DA:986,0
DA:987,0
DA:988,0
DA:989,0
DA:990,0
DA:991,0
DA:992,0
DA:993,0
DA:994,0
DA:995,0
DA:996,0
DA:997,0
DA:998,0
DA:999,0
DA:1000,0
DA:1002,0
DA:1003,0
DA:1004,0
DA:1005,0
DA:1006,0
DA:1007,0
DA:1008,0
DA:1009,0
DA:1010,0
DA:1011,0
DA:1012,0
DA:1013,0
DA:1014,0
DA:1015,0
DA:1016,0
DA:1017,0
DA:1018,0
DA:1019,0
DA:1020,0
DA:1021,0
DA:1022,0
DA:1023,0
DA:1024,0
DA:1025,0
DA:1026,0
DA:1027,0
DA:1028,0
DA:1029,0
DA:1030,0
DA:1031,0
DA:1032,0
DA:1033,0
DA:1034,0
DA:1035,0
DA:1036,0
DA:1037,0
DA:1038,0
DA:1039,0
DA:1040,0
DA:1041,0
DA:1042,0
DA:1043,0
DA:1044,0
DA:1045,0
DA:1046,0
DA:1047,0
DA:1049,0
DA:1050,0
DA:1051,0
DA:1052,0
DA:1053,0
DA:1054,0
DA:1055,0
DA:1056,0
DA:1057,0
DA:1058,0
DA:1059,0
DA:1060,0
DA:1061,0
DA:1062,0
DA:1063,0
DA:1064,0
DA:1065,0
DA:1066,0
DA:1067,0
DA:1068,0
DA:1069,0
DA:1070,0
DA:1071,0
DA:1072,0
DA:1073,0
DA:1074,0
DA:1075,0
DA:1076,0
DA:1077,0
DA:1078,0
DA:1079,0
DA:1080,0
DA:1081,0
DA:1082,0
DA:1083,0
DA:1084,0
DA:1085,0
DA:1086,0
DA:1087,0
DA:1088,0
DA:1089,0
DA:1090,0
BRF:0
BRH:0
LF:1343
LH:0
end_of_record
SF:/workspace/base/backend/oauth/src/adapters/web/controllers/general_controller.rs
FN:8,_RNvXNtNtNtNtCskY3J53qhLT7_5oauth8adapters3web11controllers18general_controllerNtB2_23___path_login_controllerNtNtCs7uGmPRfeiaR_6utoipa5___dev4Tags4tags
FN:8,_RNvXs_NtNtNtNtCskY3J53qhLT7_5oauth8adapters3web11controllers18general_controllerNtB4_23___path_login_controllerNtCs7uGmPRfeiaR_6utoipa4Path4path
FN:8,_RNvXs_NtNtNtNtCskY3J53qhLT7_5oauth8adapters3web11controllers18general_controllerNtB4_23___path_login_controllerNtCs7uGmPRfeiaR_6utoipa4Path7methods
FN:23,_RNvXs_NtNtNtNtCskY3J53qhLT7_5oauth8adapters3web11controllers18general_controllerNtB4_23___path_login_controllerNtCs7uGmPRfeiaR_6utoipa4Path9operation
FN:8,_RNvXs0_NtNtNtNtCskY3J53qhLT7_5oauth8adapters3web11controllers18general_controllerNtB5_23___path_login_controllerNtNtCs7uGmPRfeiaR_6utoipa5___dev16SchemaReferences7schemas
FN:24,_RNvXs2_NtNtNtNtCskY3J53qhLT7_5oauth8adapters3web11controllers18general_controllerNtB5_16login_controllerNtNtCsb9zwYTRy8hm_9actix_web7service18HttpServiceFactory8register
FN:25,_RNvNvXs2_NtNtNtNtCskY3J53qhLT7_5oauth8adapters3web11controllers18general_controllerNtB7_16login_controllerNtNtCsb9zwYTRy8hm_9actix_web7service18HttpServiceFactory8register16login_controller
FN:25,_RNCNvNvXs2_NtNtNtNtCskY3J53qhLT7_5oauth8adapters3web11controllers18general_controllerNtB9_16login_controllerNtNtCsb9zwYTRy8hm_9actix_web7service18HttpServiceFactory8register16login_controller0Bh_
FN:8,_RNvXNtNtNtNtCs16bWprmmhjH_5oauth8adapters3web11controllers18general_controllerNtB2_23___path_login_controllerNtNtCs7uGmPRfeiaR_6utoipa5___dev4Tags4tags
FN:8,_RNvXs_NtNtNtNtCs16bWprmmhjH_5oauth8adapters3web11controllers18general_controllerNtB4_23___path_login_controllerNtCs7uGmPRfeiaR_6utoipa4Path4path
FN:8,_RNvXs_NtNtNtNtCs16bWprmmhjH_5oauth8adapters3web11controllers18general_controllerNtB4_23___path_login_controllerNtCs7uGmPRfeiaR_6utoipa4Path7methods
FN:23,_RNvXs_NtNtNtNtCs16bWprmmhjH_5oauth8adapters3web11controllers18general_controllerNtB4_23___path_login_controllerNtCs7uGmPRfeiaR_6utoipa4Path9operation
FN:8,_RNvXs0_NtNtNtNtCs16bWprmmhjH_5oauth8adapters3web11controllers18general_controllerNtB5_23___path_login_controllerNtNtCs7uGmPRfeiaR_6utoipa5___dev16SchemaReferences7schemas
FN:24,_RNvXs2_NtNtNtNtCs16bWprmmhjH_5oauth8adapters3web11controllers18general_controllerNtB5_16login_controllerNtNtCsb9zwYTRy8hm_9actix_web7service18HttpServiceFactory8register
FN:25,_RNvNvXs2_NtNtNtNtCs16bWprmmhjH_5oauth8adapters3web11controllers18general_controllerNtB7_16login_controllerNtNtCsb9zwYTRy8hm_9actix_web7service18HttpServiceFactory8register16login_controller
FN:25,_RNCNvNvXs2_NtNtNtNtCs16bWprmmhjH_5oauth8adapters3web11controllers18general_controllerNtB9_16login_controllerNtNtCsb9zwYTRy8hm_9actix_web7service18HttpServiceFactory8register16login_controller0Bh_
FNDA:0,_RNvXNtNtNtNtCskY3J53qhLT7_5oauth8adapters3web11controllers18general_controllerNtB2_23___path_login_controllerNtNtCs7uGmPRfeiaR_6utoipa5___dev4Tags4tags
FNDA:0,_RNvXs_NtNtNtNtCskY3J53qhLT7_5oauth8adapters3web11controllers18general_controllerNtB4_23___path_login_controllerNtCs7uGmPRfeiaR_6utoipa4Path4path
FNDA:0,_RNvXs_NtNtNtNtCskY3J53qhLT7_5oauth8adapters3web11controllers18general_controllerNtB4_23___path_login_controllerNtCs7uGmPRfeiaR_6utoipa4Path7methods
FNDA:0,_RNvXs_NtNtNtNtCskY3J53qhLT7_5oauth8adapters3web11controllers18general_controllerNtB4_23___path_login_controllerNtCs7uGmPRfeiaR_6utoipa4Path9operation
FNDA:0,_RNvXs0_NtNtNtNtCskY3J53qhLT7_5oauth8adapters3web11controllers18general_controllerNtB5_23___path_login_controllerNtNtCs7uGmPRfeiaR_6utoipa5___dev16SchemaReferences7schemas
FNDA:0,_RNvXs2_NtNtNtNtCskY3J53qhLT7_5oauth8adapters3web11controllers18general_controllerNtB5_16login_controllerNtNtCsb9zwYTRy8hm_9actix_web7service18HttpServiceFactory8register
FNDA:0,_RNvNvXs2_NtNtNtNtCskY3J53qhLT7_5oauth8adapters3web11controllers18general_controllerNtB7_16login_controllerNtNtCsb9zwYTRy8hm_9actix_web7service18HttpServiceFactory8register16login_controller
FNDA:0,_RNCNvNvXs2_NtNtNtNtCskY3J53qhLT7_5oauth8adapters3web11controllers18general_controllerNtB9_16login_controllerNtNtCsb9zwYTRy8hm_9actix_web7service18HttpServiceFactory8register16login_controller0Bh_
FNDA:0,_RNvXNtNtNtNtCs16bWprmmhjH_5oauth8adapters3web11controllers18general_controllerNtB2_23___path_login_controllerNtNtCs7uGmPRfeiaR_6utoipa5___dev4Tags4tags
FNDA:0,_RNvXs_NtNtNtNtCs16bWprmmhjH_5oauth8adapters3web11controllers18general_controllerNtB4_23___path_login_controllerNtCs7uGmPRfeiaR_6utoipa4Path4path
FNDA:0,_RNvXs_NtNtNtNtCs16bWprmmhjH_5oauth8adapters3web11controllers18general_controllerNtB4_23___path_login_controllerNtCs7uGmPRfeiaR_6utoipa4Path7methods
FNDA:0,_RNvXs_NtNtNtNtCs16bWprmmhjH_5oauth8adapters3web11controllers18general_controllerNtB4_23___path_login_controllerNtCs7uGmPRfeiaR_6utoipa4Path9operation
FNDA:0,_RNvXs0_NtNtNtNtCs16bWprmmhjH_5oauth8adapters3web11controllers18general_controllerNtB5_23___path_login_controllerNtNtCs7uGmPRfeiaR_6utoipa5___dev16SchemaReferences7schemas
FNDA:0,_RNvXs2_NtNtNtNtCs16bWprmmhjH_5oauth8adapters3web11controllers18general_controllerNtB5_16login_controllerNtNtCsb9zwYTRy8hm_9actix_web7service18HttpServiceFactory8register
FNDA:0,_RNvNvXs2_NtNtNtNtCs16bWprmmhjH_5oauth8adapters3web11controllers18general_controllerNtB7_16login_controllerNtNtCsb9zwYTRy8hm_9actix_web7service18HttpServiceFactory8register16login_controller
FNDA:0,_RNCNvNvXs2_NtNtNtNtCs16bWprmmhjH_5oauth8adapters3web11controllers18general_controllerNtB9_16login_controllerNtNtCsb9zwYTRy8hm_9actix_web7service18HttpServiceFactory8register16login_controller0Bh_
FNF:5
FNH:0
DA:8,0
DA:9,0
DA:10,0
DA:11,0
DA:12,0
DA:13,0
DA:14,0
DA:15,0
DA:16,0
DA:17,0
DA:18,0
DA:19,0
DA:20,0
DA:21,0
DA:22,0
DA:23,0
DA:24,0
DA:25,0
DA:26,0
DA:27,0
DA:28,0
DA:29,0
BRF:0
BRH:0
LF:24
LH:0
end_of_record
SF:/workspace/base/backend/oauth/src/adapters/web/controllers/role_controller.rs
FN:11,_RNvNtNtNtNtCskY3J53qhLT7_5oauth8adapters3web11controllers15role_controller13extract_token
FN:19,_RNvXNtNtNtNtCskY3J53qhLT7_5oauth8adapters3web11controllers15role_controllerNtB2_29___path_create_role_controllerNtNtCs7uGmPRfeiaR_6utoipa5___dev4Tags4tags
FN:19,_RNvXs_NtNtNtNtCskY3J53qhLT7_5oauth8adapters3web11controllers15role_controllerNtB4_29___path_create_role_controllerNtCs7uGmPRfeiaR_6utoipa4Path4path
FN:19,_RNvXs_NtNtNtNtCskY3J53qhLT7_5oauth8adapters3web11controllers15role_controllerNtB4_29___path_create_role_controllerNtCs7uGmPRfeiaR_6utoipa4Path7methods
FN:35,_RNvXs_NtNtNtNtCskY3J53qhLT7_5oauth8adapters3web11controllers15role_controllerNtB4_29___path_create_role_controllerNtCs7uGmPRfeiaR_6utoipa4Path9operation
FN:19,_RNvXs0_NtNtNtNtCskY3J53qhLT7_5oauth8adapters3web11controllers15role_controllerNtB5_29___path_create_role_controllerNtNtCs7uGmPRfeiaR_6utoipa5___dev16SchemaReferences7schemas
FN:36,_RNvXs2_NtNtNtNtCskY3J53qhLT7_5oauth8adapters3web11controllers15role_controllerNtB5_22create_role_controllerNtNtCsb9zwYTRy8hm_9actix_web7service18HttpServiceFactory8register
FN:37,_RNvNvXs2_NtNtNtNtCskY3J53qhLT7_5oauth8adapters3web11controllers15role_controllerNtB7_22create_role_controllerNtNtCsb9zwYTRy8hm_9actix_web7service18HttpServiceFactory8register22create_role_controller
FN:44,_RNvXs3_NtNtNtNtCskY3J53qhLT7_5oauth8adapters3web11controllers15role_controllerNtB5_27___path_get_roles_controllerNtNtCs7uGmPRfeiaR_6utoipa5___dev4Tags4tags
FN:44,_RNvXs4_NtNtNtNtCskY3J53qhLT7_5oauth8adapters3web11controllers15role_controllerNtB5_27___path_get_roles_controllerNtCs7uGmPRfeiaR_6utoipa4Path4path
FN:44,_RNvXs4_NtNtNtNtCskY3J53qhLT7_5oauth8adapters3web11controllers15role_controllerNtB5_27___path_get_roles_controllerNtCs7uGmPRfeiaR_6utoipa4Path7methods
FN:53,_RNvXs4_NtNtNtNtCskY3J53qhLT7_5oauth8adapters3web11controllers15role_controllerNtB5_27___path_get_roles_controllerNtCs7uGmPRfeiaR_6utoipa4Path9operation
FN:44,_RNvXs5_NtNtNtNtCskY3J53qhLT7_5oauth8adapters3web11controllers15role_controllerNtB5_27___path_get_roles_controllerNtNtCs7uGmPRfeiaR_6utoipa5___dev16SchemaReferences7schemas
FN:54,_RNvXs7_NtNtNtNtCskY3J53qhLT7_5oauth8adapters3web11controllers15role_controllerNtB5_20get_roles_controllerNtNtCsb9zwYTRy8hm_9actix_web7service18HttpServiceFactory8register
FN:55,_RNvNvXs7_NtNtNtNtCskY3J53qhLT7_5oauth8adapters3web11controllers15role_controllerNtB7_20get_roles_controllerNtNtCsb9zwYTRy8hm_9actix_web7service18HttpServiceFactory8register20get_roles_controller
FN:62,_RNvXs8_NtNtNtNtCskY3J53qhLT7_5oauth8adapters3web11controllers15role_controllerNtB5_26___path_get_role_controllerNtNtCs7uGmPRfeiaR_6utoipa5___dev4Tags4tags
FN:62,_RNvXs9_NtNtNtNtCskY3J53qhLT7_5oauth8adapters3web11controllers15role_controllerNtB5_26___path_get_role_controllerNtCs7uGmPRfeiaR_6utoipa4Path4path
FN:62,_RNvXs9_NtNtNtNtCskY3J53qhLT7_5oauth8adapters3web11controllers15role_controllerNtB5_26___path_get_role_controllerNtCs7uGmPRfeiaR_6utoipa4Path7methods
FN:75,_RNvXs9_NtNtNtNtCskY3J53qhLT7_5oauth8adapters3web11controllers15role_controllerNtB5_26___path_get_role_controllerNtCs7uGmPRfeiaR_6utoipa4Path9operation
FN:62,_RNvXsa_NtNtNtNtCskY3J53qhLT7_5oauth8adapters3web11controllers15role_controllerNtB5_26___path_get_role_controllerNtNtCs7uGmPRfeiaR_6utoipa5___dev16SchemaReferences7schemas
FN:76,_RNvXsc_NtNtNtNtCskY3J53qhLT7_5oauth8adapters3web11controllers15role_controllerNtB5_19get_role_controllerNtNtCsb9zwYTRy8hm_9actix_web7service18HttpServiceFactory8register
FN:77,_RNvNvXsc_NtNtNtNtCskY3J53qhLT7_5oauth8adapters3web11controllers15role_controllerNtB7_19get_role_controllerNtNtCsb9zwYTRy8hm_9actix_web7service18HttpServiceFactory8register19get_role_controller
FN:85,_RNvXsd_NtNtNtNtCskY3J53qhLT7_5oauth8adapters3web11controllers15role_controllerNtB5_29___path_update_role_controllerNtNtCs7uGmPRfeiaR_6utoipa5___dev4Tags4tags
FN:85,_RNvXse_NtNtNtNtCskY3J53qhLT7_5oauth8adapters3web11controllers15role_controllerNtB5_29___path_update_role_controllerNtCs7uGmPRfeiaR_6utoipa4Path4path
FN:85,_RNvXse_NtNtNtNtCskY3J53qhLT7_5oauth8adapters3web11controllers15role_controllerNtB5_29___path_update_role_controllerNtCs7uGmPRfeiaR_6utoipa4Path7methods
FN:104,_RNvXse_NtNtNtNtCskY3J53qhLT7_5oauth8adapters3web11controllers15role_controllerNtB5_29___path_update_role_controllerNtCs7uGmPRfeiaR_6utoipa4Path9operation
FN:85,_RNvXsf_NtNtNtNtCskY3J53qhLT7_5oauth8adapters3web11controllers15role_controllerNtB5_29___path_update_role_controllerNtNtCs7uGmPRfeiaR_6utoipa5___dev16SchemaReferences7schemas
FN:105,_RNvXsh_NtNtNtNtCskY3J53qhLT7_5oauth8adapters3web11controllers15role_controllerNtB5_22update_role_controllerNtNtCsb9zwYTRy8hm_9actix_web7service18HttpServiceFactory8register
FN:106,_RNvNvXsh_NtNtNtNtCskY3J53qhLT7_5oauth8adapters3web11controllers15role_controllerNtB7_22update_role_controllerNtNtCsb9zwYTRy8hm_9actix_web7service18HttpServiceFactory8register22update_role_controller
FN:118,_RNvXsi_NtNtNtNtCskY3J53qhLT7_5oauth8adapters3web11controllers15role_controllerNtB5_28___path_patch_role_controllerNtNtCs7uGmPRfeiaR_6utoipa5___dev4Tags4tags
FN:118,_RNvXsj_NtNtNtNtCskY3J53qhLT7_5oauth8adapters3web11controllers15role_controllerNtB5_28___path_patch_role_controllerNtCs7uGmPRfeiaR_6utoipa4Path4path
FN:118,_RNvXsj_NtNtNtNtCskY3J53qhLT7_5oauth8adapters3web11controllers15role_controllerNtB5_28___path_patch_role_controllerNtCs7uGmPRfeiaR_6utoipa4Path7methods
FN:137,_RNvXsj_NtNtNtNtCskY3J53qhLT7_5oauth8adapters3web11controllers15role_controllerNtB5_28___path_patch_role_controllerNtCs7uGmPRfeiaR_6utoipa4Path9operation
FN:118,_RNvXsk_NtNtNtNtCskY3J53qhLT7_5oauth8adapters3web11controllers15role_controllerNtB5_28___path_patch_role_controllerNtNtCs7uGmPRfeiaR_6utoipa5___dev16SchemaReferences7schemas
FN:138,_RNvXsm_NtNtNtNtCskY3J53qhLT7_5oauth8adapters3web11controllers15role_controllerNtB5_21patch_role_controllerNtNtCsb9zwYTRy8hm_9actix_web7service18HttpServiceFactory8register
FN:139,_RNvNvXsm_NtNtNtNtCskY3J53qhLT7_5oauth8adapters3web11controllers15role_controllerNtB7_21patch_role_controllerNtNtCsb9zwYTRy8hm_9actix_web7service18HttpServiceFactory8register21patch_role_controller
FN:151,_RNvXsn_NtNtNtNtCskY3J53qhLT7_5oauth8adapters3web11controllers15role_controllerNtB5_29___path_delete_role_controllerNtNtCs7uGmPRfeiaR_6utoipa5___dev4Tags4tags
FN:151,_RNvXso_NtNtNtNtCskY3J53qhLT7_5oauth8adapters3web11controllers15role_controllerNtB5_29___path_delete_role_controllerNtCs7uGmPRfeiaR_6utoipa4Path4path
FN:151,_RNvXso_NtNtNtNtCskY3J53qhLT7_5oauth8adapters3web11controllers15role_controllerNtB5_29___path_delete_role_controllerNtCs7uGmPRfeiaR_6utoipa4Path7methods
FN:164,_RNvXso_NtNtNtNtCskY3J53qhLT7_5oauth8adapters3web11controllers15role_controllerNtB5_29___path_delete_role_controllerNtCs7uGmPRfeiaR_6utoipa4Path9operation
FN:151,_RNvXsp_NtNtNtNtCskY3J53qhLT7_5oauth8adapters3web11controllers15role_controllerNtB5_29___path_delete_role_controllerNtNtCs7uGmPRfeiaR_6utoipa5___dev16SchemaReferences7schemas
FN:165,_RNvXsr_NtNtNtNtCskY3J53qhLT7_5oauth8adapters3web11controllers15role_controllerNtB5_22delete_role_controllerNtNtCsb9zwYTRy8hm_9actix_web7service18HttpServiceFactory8register
FN:166,_RNvNvXsr_NtNtNtNtCskY3J53qhLT7_5oauth8adapters3web11controllers15role_controllerNtB7_22delete_role_controllerNtNtCsb9zwYTRy8hm_9actix_web7service18HttpServiceFactory8register22delete_role_controller
FN:14,_RNCNvNtNtNtNtCskY3J53qhLT7_5oauth8adapters3web11controllers15role_controller13extract_token0Bb_
FN:15,_RNCNvNtNtNtNtCskY3J53qhLT7_5oauth8adapters3web11controllers15role_controller13extract_tokens_0Bb_
FN:37,_RNCNvNvXs2_NtNtNtNtCskY3J53qhLT7_5oauth8adapters3web11controllers15role_controllerNtB9_22create_role_controllerNtNtCsb9zwYTRy8hm_9actix_web7service18HttpServiceFactory8register22create_role_controller0Bh_
FN:55,_RNCNvNvXs7_NtNtNtNtCskY3J53qhLT7_5oauth8adapters3web11controllers15role_controllerNtB9_20get_roles_controllerNtNtCsb9zwYTRy8hm_9actix_web7service18HttpServiceFactory8register20get_roles_controller0Bh_
FN:77,_RNCNvNvXsc_NtNtNtNtCskY3J53qhLT7_5oauth8adapters3web11controllers15role_controllerNtB9_19get_role_controllerNtNtCsb9zwYTRy8hm_9actix_web7service18HttpServiceFactory8register19get_role_controller0Bh_
FN:110,_RNCNvNvXsh_NtNtNtNtCskY3J53qhLT7_5oauth8adapters3web11controllers15role_controllerNtB9_22update_role_controllerNtNtCsb9zwYTRy8hm_9actix_web7service18HttpServiceFactory8register22update_role_controller0Bh_
FN:143,_RNCNvNvXsm_NtNtNtNtCskY3J53qhLT7_5oauth8adapters3web11controllers15role_controllerNtB9_21patch_role_controllerNtNtCsb9zwYTRy8hm_9actix_web7service18HttpServiceFactory8register21patch_role_controller0Bh_
FN:166,_RNCNvNvXsr_NtNtNtNtCskY3J53qhLT7_5oauth8adapters3web11controllers15role_controllerNtB9_22delete_role_controllerNtNtCsb9zwYTRy8hm_9actix_web7service18HttpServiceFactory8register22delete_role_controller0Bh_
FN:11,_RNvNtNtNtNtCs16bWprmmhjH_5oauth8adapters3web11controllers15role_controller13extract_token
FN:14,_RNCNvNtNtNtNtCs16bWprmmhjH_5oauth8adapters3web11controllers15role_controller13extract_token0Bb_
FN:15,_RNCNvNtNtNtNtCs16bWprmmhjH_5oauth8adapters3web11controllers15role_controller13extract_tokens_0Bb_
FN:19,_RNvXNtNtNtNtCs16bWprmmhjH_5oauth8adapters3web11controllers15role_controllerNtB2_29___path_create_role_controllerNtNtCs7uGmPRfeiaR_6utoipa5___dev4Tags4tags
FN:19,_RNvXs_NtNtNtNtCs16bWprmmhjH_5oauth8adapters3web11controllers15role_controllerNtB4_29___path_create_role_controllerNtCs7uGmPRfeiaR_6utoipa4Path4path
FN:19,_RNvXs_NtNtNtNtCs16bWprmmhjH_5oauth8adapters3web11controllers15role_controllerNtB4_29___path_create_role_controllerNtCs7uGmPRfeiaR_6utoipa4Path7methods
FN:35,_RNvXs_NtNtNtNtCs16bWprmmhjH_5oauth8adapters3web11controllers15role_controllerNtB4_29___path_create_role_controllerNtCs7uGmPRfeiaR_6utoipa4Path9operation
FN:19,_RNvXs0_NtNtNtNtCs16bWprmmhjH_5oauth8adapters3web11controllers15role_controllerNtB5_29___path_create_role_controllerNtNtCs7uGmPRfeiaR_6utoipa5___dev16SchemaReferences7schemas
FN:36,_RNvXs2_NtNtNtNtCs16bWprmmhjH_5oauth8adapters3web11controllers15role_controllerNtB5_22create_role_controllerNtNtCsb9zwYTRy8hm_9actix_web7service18HttpServiceFactory8register
FN:37,_RNvNvXs2_NtNtNtNtCs16bWprmmhjH_5oauth8adapters3web11controllers15role_controllerNtB7_22create_role_controllerNtNtCsb9zwYTRy8hm_9actix_web7service18HttpServiceFactory8register22create_role_controller
FN:37,_RNCNvNvXs2_NtNtNtNtCs16bWprmmhjH_5oauth8adapters3web11controllers15role_controllerNtB9_22create_role_controllerNtNtCsb9zwYTRy8hm_9actix_web7service18HttpServiceFactory8register22create_role_controller0Bh_
FN:44,_RNvXs3_NtNtNtNtCs16bWprmmhjH_5oauth8adapters3web11controllers15role_controllerNtB5_27___path_get_roles_controllerNtNtCs7uGmPRfeiaR_6utoipa5___dev4Tags4tags
FN:44,_RNvXs4_NtNtNtNtCs16bWprmmhjH_5oauth8adapters3web11controllers15role_controllerNtB5_27___path_get_roles_controllerNtCs7uGmPRfeiaR_6utoipa4Path4path
FN:44,_RNvXs4_NtNtNtNtCs16bWprmmhjH_5oauth8adapters3web11controllers15role_controllerNtB5_27___path_get_roles_controllerNtCs7uGmPRfeiaR_6utoipa4Path7methods
FN:53,_RNvXs4_NtNtNtNtCs16bWprmmhjH_5oauth8adapters3web11controllers15role_controllerNtB5_27___path_get_roles_controllerNtCs7uGmPRfeiaR_6utoipa4Path9operation
FN:44,_RNvXs5_NtNtNtNtCs16bWprmmhjH_5oauth8adapters3web11controllers15role_controllerNtB5_27___path_get_roles_controllerNtNtCs7uGmPRfeiaR_6utoipa5___dev16SchemaReferences7schemas
FN:54,_RNvXs7_NtNtNtNtCs16bWprmmhjH_5oauth8adapters3web11controllers15role_controllerNtB5_20get_roles_controllerNtNtCsb9zwYTRy8hm_9actix_web7service18HttpServiceFactory8register
FN:55,_RNvNvXs7_NtNtNtNtCs16bWprmmhjH_5oauth8adapters3web11controllers15role_controllerNtB7_20get_roles_controllerNtNtCsb9zwYTRy8hm_9actix_web7service18HttpServiceFactory8register20get_roles_controller
FN:55,_RNCNvNvXs7_NtNtNtNtCs16bWprmmhjH_5oauth8adapters3web11controllers15role_controllerNtB9_20get_roles_controllerNtNtCsb9zwYTRy8hm_9actix_web7service18HttpServiceFactory8register20get_roles_controller0Bh_
FN:62,_RNvXs8_NtNtNtNtCs16bWprmmhjH_5oauth8adapters3web11controllers15role_controllerNtB5_26___path_get_role_controllerNtNtCs7uGmPRfeiaR_6utoipa5___dev4Tags4tags
FN:62,_RNvXs9_NtNtNtNtCs16bWprmmhjH_5oauth8adapters3web11controllers15role_controllerNtB5_26___path_get_role_controllerNtCs7uGmPRfeiaR_6utoipa4Path4path
FN:62,_RNvXs9_NtNtNtNtCs16bWprmmhjH_5oauth8adapters3web11controllers15role_controllerNtB5_26___path_get_role_controllerNtCs7uGmPRfeiaR_6utoipa4Path7methods
FN:75,_RNvXs9_NtNtNtNtCs16bWprmmhjH_5oauth8adapters3web11controllers15role_controllerNtB5_26___path_get_role_controllerNtCs7uGmPRfeiaR_6utoipa4Path9operation
FN:62,_RNvXsa_NtNtNtNtCs16bWprmmhjH_5oauth8adapters3web11controllers15role_controllerNtB5_26___path_get_role_controllerNtNtCs7uGmPRfeiaR_6utoipa5___dev16SchemaReferences7schemas
FN:76,_RNvXsc_NtNtNtNtCs16bWprmmhjH_5oauth8adapters3web11controllers15role_controllerNtB5_19get_role_controllerNtNtCsb9zwYTRy8hm_9actix_web7service18HttpServiceFactory8register
FN:77,_RNvNvXsc_NtNtNtNtCs16bWprmmhjH_5oauth8adapters3web11controllers15role_controllerNtB7_19get_role_controllerNtNtCsb9zwYTRy8hm_9actix_web7service18HttpServiceFactory8register19get_role_controller
FN:77,_RNCNvNvXsc_NtNtNtNtCs16bWprmmhjH_5oauth8adapters3web11controllers15role_controllerNtB9_19get_role_controllerNtNtCsb9zwYTRy8hm_9actix_web7service18HttpServiceFactory8register19get_role_controller0Bh_
FN:85,_RNvXsd_NtNtNtNtCs16bWprmmhjH_5oauth8adapters3web11controllers15role_controllerNtB5_29___path_update_role_controllerNtNtCs7uGmPRfeiaR_6utoipa5___dev4Tags4tags
FN:85,_RNvXse_NtNtNtNtCs16bWprmmhjH_5oauth8adapters3web11controllers15role_controllerNtB5_29___path_update_role_controllerNtCs7uGmPRfeiaR_6utoipa4Path4path
FN:85,_RNvXse_NtNtNtNtCs16bWprmmhjH_5oauth8adapters3web11controllers15role_controllerNtB5_29___path_update_role_controllerNtCs7uGmPRfeiaR_6utoipa4Path7methods
FN:104,_RNvXse_NtNtNtNtCs16bWprmmhjH_5oauth8adapters3web11controllers15role_controllerNtB5_29___path_update_role_controllerNtCs7uGmPRfeiaR_6utoipa4Path9operation
FN:85,_RNvXsf_NtNtNtNtCs16bWprmmhjH_5oauth8adapters3web11controllers15role_controllerNtB5_29___path_update_role_controllerNtNtCs7uGmPRfeiaR_6utoipa5___dev16SchemaReferences7schemas
FN:105,_RNvXsh_NtNtNtNtCs16bWprmmhjH_5oauth8adapters3web11controllers15role_controllerNtB5_22update_role_controllerNtNtCsb9zwYTRy8hm_9actix_web7service18HttpServiceFactory8register
FN:106,_RNvNvXsh_NtNtNtNtCs16bWprmmhjH_5oauth8adapters3web11controllers15role_controllerNtB7_22update_role_controllerNtNtCsb9zwYTRy8hm_9actix_web7service18HttpServiceFactory8register22update_role_controller
FN:110,_RNCNvNvXsh_NtNtNtNtCs16bWprmmhjH_5oauth8adapters3web11controllers15role_controllerNtB9_22update_role_controllerNtNtCsb9zwYTRy8hm_9actix_web7service18HttpServiceFactory8register22update_role_controller0Bh_
FN:118,_RNvXsi_NtNtNtNtCs16bWprmmhjH_5oauth8adapters3web11controllers15role_controllerNtB5_28___path_patch_role_controllerNtNtCs7uGmPRfeiaR_6utoipa5___dev4Tags4tags
FN:118,_RNvXsj_NtNtNtNtCs16bWprmmhjH_5oauth8adapters3web11controllers15role_controllerNtB5_28___path_patch_role_controllerNtCs7uGmPRfeiaR_6utoipa4Path4path
FN:118,_RNvXsj_NtNtNtNtCs16bWprmmhjH_5oauth8adapters3web11controllers15role_controllerNtB5_28___path_patch_role_controllerNtCs7uGmPRfeiaR_6utoipa4Path7methods
FN:137,_RNvXsj_NtNtNtNtCs16bWprmmhjH_5oauth8adapters3web11controllers15role_controllerNtB5_28___path_patch_role_controllerNtCs7uGmPRfeiaR_6utoipa4Path9operation
FN:118,_RNvXsk_NtNtNtNtCs16bWprmmhjH_5oauth8adapters3web11controllers15role_controllerNtB5_28___path_patch_role_controllerNtNtCs7uGmPRfeiaR_6utoipa5___dev16SchemaReferences7schemas
FN:138,_RNvXsm_NtNtNtNtCs16bWprmmhjH_5oauth8adapters3web11controllers15role_controllerNtB5_21patch_role_controllerNtNtCsb9zwYTRy8hm_9actix_web7service18HttpServiceFactory8register
FN:139,_RNvNvXsm_NtNtNtNtCs16bWprmmhjH_5oauth8adapters3web11controllers15role_controllerNtB7_21patch_role_controllerNtNtCsb9zwYTRy8hm_9actix_web7service18HttpServiceFactory8register21patch_role_controller
FN:143,_RNCNvNvXsm_NtNtNtNtCs16bWprmmhjH_5oauth8adapters3web11controllers15role_controllerNtB9_21patch_role_controllerNtNtCsb9zwYTRy8hm_9actix_web7service18HttpServiceFactory8register21patch_role_controller0Bh_
FN:151,_RNvXsn_NtNtNtNtCs16bWprmmhjH_5oauth8adapters3web11controllers15role_controllerNtB5_29___path_delete_role_controllerNtNtCs7uGmPRfeiaR_6utoipa5___dev4Tags4tags
FN:151,_RNvXso_NtNtNtNtCs16bWprmmhjH_5oauth8adapters3web11controllers15role_controllerNtB5_29___path_delete_role_controllerNtCs7uGmPRfeiaR_6utoipa4Path4path
FN:151,_RNvXso_NtNtNtNtCs16bWprmmhjH_5oauth8adapters3web11controllers15role_controllerNtB5_29___path_delete_role_controllerNtCs7uGmPRfeiaR_6utoipa4Path7methods
FN:164,_RNvXso_NtNtNtNtCs16bWprmmhjH_5oauth8adapters3web11controllers15role_controllerNtB5_29___path_delete_role_controllerNtCs7uGmPRfeiaR_6utoipa4Path9operation
FN:151,_RNvXsp_NtNtNtNtCs16bWprmmhjH_5oauth8adapters3web11controllers15role_controllerNtB5_29___path_delete_role_controllerNtNtCs7uGmPRfeiaR_6utoipa5___dev16SchemaReferences7schemas
FN:165,_RNvXsr_NtNtNtNtCs16bWprmmhjH_5oauth8adapters3web11controllers15role_controllerNtB5_22delete_role_controllerNtNtCsb9zwYTRy8hm_9actix_web7service18HttpServiceFactory8register
FN:166,_RNvNvXsr_NtNtNtNtCs16bWprmmhjH_5oauth8adapters3web11controllers15role_controllerNtB7_22delete_role_controllerNtNtCsb9zwYTRy8hm_9actix_web7service18HttpServiceFactory8register22delete_role_controller
FN:166,_RNCNvNvXsr_NtNtNtNtCs16bWprmmhjH_5oauth8adapters3web11controllers15role_controllerNtB9_22delete_role_controllerNtNtCsb9zwYTRy8hm_9actix_web7service18HttpServiceFactory8register22delete_role_controller0Bh_
FNDA:0,_RNvNtNtNtNtCskY3J53qhLT7_5oauth8adapters3web11controllers15role_controller13extract_token
FNDA:0,_RNvXNtNtNtNtCskY3J53qhLT7_5oauth8adapters3web11controllers15role_controllerNtB2_29___path_create_role_controllerNtNtCs7uGmPRfeiaR_6utoipa5___dev4Tags4tags
FNDA:0,_RNvXs_NtNtNtNtCskY3J53qhLT7_5oauth8adapters3web11controllers15role_controllerNtB4_29___path_create_role_controllerNtCs7uGmPRfeiaR_6utoipa4Path4path
FNDA:0,_RNvXs_NtNtNtNtCskY3J53qhLT7_5oauth8adapters3web11controllers15role_controllerNtB4_29___path_create_role_controllerNtCs7uGmPRfeiaR_6utoipa4Path7methods
FNDA:0,_RNvXs_NtNtNtNtCskY3J53qhLT7_5oauth8adapters3web11controllers15role_controllerNtB4_29___path_create_role_controllerNtCs7uGmPRfeiaR_6utoipa4Path9operation
FNDA:0,_RNvXs0_NtNtNtNtCskY3J53qhLT7_5oauth8adapters3web11controllers15role_controllerNtB5_29___path_create_role_controllerNtNtCs7uGmPRfeiaR_6utoipa5___dev16SchemaReferences7schemas
FNDA:0,_RNvXs2_NtNtNtNtCskY3J53qhLT7_5oauth8adapters3web11controllers15role_controllerNtB5_22create_role_controllerNtNtCsb9zwYTRy8hm_9actix_web7service18HttpServiceFactory8register
FNDA:0,_RNvNvXs2_NtNtNtNtCskY3J53qhLT7_5oauth8adapters3web11controllers15role_controllerNtB7_22create_role_controllerNtNtCsb9zwYTRy8hm_9actix_web7service18HttpServiceFactory8register22create_role_controller
FNDA:0,_RNvXs3_NtNtNtNtCskY3J53qhLT7_5oauth8adapters3web11controllers15role_controllerNtB5_27___path_get_roles_controllerNtNtCs7uGmPRfeiaR_6utoipa5___dev4Tags4tags
FNDA:0,_RNvXs4_NtNtNtNtCskY3J53qhLT7_5oauth8adapters3web11controllers15role_controllerNtB5_27___path_get_roles_controllerNtCs7uGmPRfeiaR_6utoipa4Path4path
FNDA:0,_RNvXs4_NtNtNtNtCskY3J53qhLT7_5oauth8adapters3web11controllers15role_controllerNtB5_27___path_get_roles_controllerNtCs7uGmPRfeiaR_6utoipa4Path7methods
FNDA:0,_RNvXs4_NtNtNtNtCskY3J53qhLT7_5oauth8adapters3web11controllers15role_controllerNtB5_27___path_get_roles_controllerNtCs7uGmPRfeiaR_6utoipa4Path9operation
FNDA:0,_RNvXs5_NtNtNtNtCskY3J53qhLT7_5oauth8adapters3web11controllers15role_controllerNtB5_27___path_get_roles_controllerNtNtCs7uGmPRfeiaR_6utoipa5___dev16SchemaReferences7schemas
FNDA:0,_RNvXs7_NtNtNtNtCskY3J53qhLT7_5oauth8adapters3web11controllers15role_controllerNtB5_20get_roles_controllerNtNtCsb9zwYTRy8hm_9actix_web7service18HttpServiceFactory8register
FNDA:0,_RNvNvXs7_NtNtNtNtCskY3J53qhLT7_5oauth8adapters3web11controllers15role_controllerNtB7_20get_roles_controllerNtNtCsb9zwYTRy8hm_9actix_web7service18HttpServiceFactory8register20get_roles_controller
FNDA:0,_RNvXs8_NtNtNtNtCskY3J53qhLT7_5oauth8adapters3web11controllers15role_controllerNtB5_26___path_get_role_controllerNtNtCs7uGmPRfeiaR_6utoipa5___dev4Tags4tags
FNDA:0,_RNvXs9_NtNtNtNtCskY3J53qhLT7_5oauth8adapters3web11controllers15role_controllerNtB5_26___path_get_role_controllerNtCs7uGmPRfeiaR_6utoipa4Path4path
FNDA:0,_RNvXs9_NtNtNtNtCskY3J53qhLT7_5oauth8adapters3web11controllers15role_controllerNtB5_26___path_get_role_controllerNtCs7uGmPRfeiaR_6utoipa4Path7methods
FNDA:0,_RNvXs9_NtNtNtNtCskY3J53qhLT7_5oauth8adapters3web11controllers15role_controllerNtB5_26___path_get_role_controllerNtCs7uGmPRfeiaR_6utoipa4Path9operation
FNDA:0,_RNvXsa_NtNtNtNtCskY3J53qhLT7_5oauth8adapters3web11controllers15role_controllerNtB5_26___path_get_role_controllerNtNtCs7uGmPRfeiaR_6utoipa5___dev16SchemaReferences7schemas
FNDA:0,_RNvXsc_NtNtNtNtCskY3J53qhLT7_5oauth8adapters3web11controllers15role_controllerNtB5_19get_role_controllerNtNtCsb9zwYTRy8hm_9actix_web7service18HttpServiceFactory8register
FNDA:0,_RNvNvXsc_NtNtNtNtCskY3J53qhLT7_5oauth8adapters3web11controllers15role_controllerNtB7_19get_role_controllerNtNtCsb9zwYTRy8hm_9actix_web7service18HttpServiceFactory8register19get_role_controller
FNDA:0,_RNvXsd_NtNtNtNtCskY3J53qhLT7_5oauth8adapters3web11controllers15role_controllerNtB5_29___path_update_role_controllerNtNtCs7uGmPRfeiaR_6utoipa5___dev4Tags4tags
FNDA:0,_RNvXse_NtNtNtNtCskY3J53qhLT7_5oauth8adapters3web11controllers15role_controllerNtB5_29___path_update_role_controllerNtCs7uGmPRfeiaR_6utoipa4Path4path
FNDA:0,_RNvXse_NtNtNtNtCskY3J53qhLT7_5oauth8adapters3web11controllers15role_controllerNtB5_29___path_update_role_controllerNtCs7uGmPRfeiaR_6utoipa4Path7methods
FNDA:0,_RNvXse_NtNtNtNtCskY3J53qhLT7_5oauth8adapters3web11controllers15role_controllerNtB5_29___path_update_role_controllerNtCs7uGmPRfeiaR_6utoipa4Path9operation
FNDA:0,_RNvXsf_NtNtNtNtCskY3J53qhLT7_5oauth8adapters3web11controllers15role_controllerNtB5_29___path_update_role_controllerNtNtCs7uGmPRfeiaR_6utoipa5___dev16SchemaReferences7schemas
FNDA:0,_RNvXsh_NtNtNtNtCskY3J53qhLT7_5oauth8adapters3web11controllers15role_controllerNtB5_22update_role_controllerNtNtCsb9zwYTRy8hm_9actix_web7service18HttpServiceFactory8register
FNDA:0,_RNvNvXsh_NtNtNtNtCskY3J53qhLT7_5oauth8adapters3web11controllers15role_controllerNtB7_22update_role_controllerNtNtCsb9zwYTRy8hm_9actix_web7service18HttpServiceFactory8register22update_role_controller
FNDA:0,_RNvXsi_NtNtNtNtCskY3J53qhLT7_5oauth8adapters3web11controllers15role_controllerNtB5_28___path_patch_role_controllerNtNtCs7uGmPRfeiaR_6utoipa5___dev4Tags4tags
FNDA:0,_RNvXsj_NtNtNtNtCskY3J53qhLT7_5oauth8adapters3web11controllers15role_controllerNtB5_28___path_patch_role_controllerNtCs7uGmPRfeiaR_6utoipa4Path4path
FNDA:0,_RNvXsj_NtNtNtNtCskY3J53qhLT7_5oauth8adapters3web11controllers15role_controllerNtB5_28___path_patch_role_controllerNtCs7uGmPRfeiaR_6utoipa4Path7methods
FNDA:0,_RNvXsj_NtNtNtNtCskY3J53qhLT7_5oauth8adapters3web11controllers15role_controllerNtB5_28___path_patch_role_controllerNtCs7uGmPRfeiaR_6utoipa4Path9operation
FNDA:0,_RNvXsk_NtNtNtNtCskY3J53qhLT7_5oauth8adapters3web11controllers15role_controllerNtB5_28___path_patch_role_controllerNtNtCs7uGmPRfeiaR_6utoipa5___dev16SchemaReferences7schemas
FNDA:0,_RNvXsm_NtNtNtNtCskY3J53qhLT7_5oauth8adapters3web11controllers15role_controllerNtB5_21patch_role_controllerNtNtCsb9zwYTRy8hm_9actix_web7service18HttpServiceFactory8register
FNDA:0,_RNvNvXsm_NtNtNtNtCskY3J53qhLT7_5oauth8adapters3web11controllers15role_controllerNtB7_21patch_role_controllerNtNtCsb9zwYTRy8hm_9actix_web7service18HttpServiceFactory8register21patch_role_controller
FNDA:0,_RNvXsn_NtNtNtNtCskY3J53qhLT7_5oauth8adapters3web11controllers15role_controllerNtB5_29___path_delete_role_controllerNtNtCs7uGmPRfeiaR_6utoipa5___dev4Tags4tags
FNDA:0,_RNvXso_NtNtNtNtCskY3J53qhLT7_5oauth8adapters3web11controllers15role_controllerNtB5_29___path_delete_role_controllerNtCs7uGmPRfeiaR_6utoipa4Path4path
FNDA:0,_RNvXso_NtNtNtNtCskY3J53qhLT7_5oauth8adapters3web11controllers15role_controllerNtB5_29___path_delete_role_controllerNtCs7uGmPRfeiaR_6utoipa4Path7methods
FNDA:0,_RNvXso_NtNtNtNtCskY3J53qhLT7_5oauth8adapters3web11controllers15role_controllerNtB5_29___path_delete_role_controllerNtCs7uGmPRfeiaR_6utoipa4Path9operation
FNDA:0,_RNvXsp_NtNtNtNtCskY3J53qhLT7_5oauth8adapters3web11controllers15role_controllerNtB5_29___path_delete_role_controllerNtNtCs7uGmPRfeiaR_6utoipa5___dev16SchemaReferences7schemas
FNDA:0,_RNvXsr_NtNtNtNtCskY3J53qhLT7_5oauth8adapters3web11controllers15role_controllerNtB5_22delete_role_controllerNtNtCsb9zwYTRy8hm_9actix_web7service18HttpServiceFactory8register
FNDA:0,_RNvNvXsr_NtNtNtNtCskY3J53qhLT7_5oauth8adapters3web11controllers15role_controllerNtB7_22delete_role_controllerNtNtCsb9zwYTRy8hm_9actix_web7service18HttpServiceFactory8register22delete_role_controller
FNDA:0,_RNCNvNtNtNtNtCskY3J53qhLT7_5oauth8adapters3web11controllers15role_controller13extract_token0Bb_
FNDA:0,_RNCNvNtNtNtNtCskY3J53qhLT7_5oauth8adapters3web11controllers15role_controller13extract_tokens_0Bb_
FNDA:0,_RNCNvNvXs2_NtNtNtNtCskY3J53qhLT7_5oauth8adapters3web11controllers15role_controllerNtB9_22create_role_controllerNtNtCsb9zwYTRy8hm_9actix_web7service18HttpServiceFactory8register22create_role_controller0Bh_
FNDA:0,_RNCNvNvXs7_NtNtNtNtCskY3J53qhLT7_5oauth8adapters3web11controllers15role_controllerNtB9_20get_roles_controllerNtNtCsb9zwYTRy8hm_9actix_web7service18HttpServiceFactory8register20get_roles_controller0Bh_
FNDA:0,_RNCNvNvXsc_NtNtNtNtCskY3J53qhLT7_5oauth8adapters3web11controllers15role_controllerNtB9_19get_role_controllerNtNtCsb9zwYTRy8hm_9actix_web7service18HttpServiceFactory8register19get_role_controller0Bh_
FNDA:0,_RNCNvNvXsh_NtNtNtNtCskY3J53qhLT7_5oauth8adapters3web11controllers15role_controllerNtB9_22update_role_controllerNtNtCsb9zwYTRy8hm_9actix_web7service18HttpServiceFactory8register22update_role_controller0Bh_
FNDA:0,_RNCNvNvXsm_NtNtNtNtCskY3J53qhLT7_5oauth8adapters3web11controllers15role_controllerNtB9_21patch_role_controllerNtNtCsb9zwYTRy8hm_9actix_web7service18HttpServiceFactory8register21patch_role_controller0Bh_
FNDA:0,_RNCNvNvXsr_NtNtNtNtCskY3J53qhLT7_5oauth8adapters3web11controllers15role_controllerNtB9_22delete_role_controllerNtNtCsb9zwYTRy8hm_9actix_web7service18HttpServiceFactory8register22delete_role_controller0Bh_
FNDA:0,_RNvNtNtNtNtCs16bWprmmhjH_5oauth8adapters3web11controllers15role_controller13extract_token
FNDA:0,_RNCNvNtNtNtNtCs16bWprmmhjH_5oauth8adapters3web11controllers15role_controller13extract_token0Bb_
FNDA:0,_RNCNvNtNtNtNtCs16bWprmmhjH_5oauth8adapters3web11controllers15role_controller13extract_tokens_0Bb_
FNDA:0,_RNvXNtNtNtNtCs16bWprmmhjH_5oauth8adapters3web11controllers15role_controllerNtB2_29___path_create_role_controllerNtNtCs7uGmPRfeiaR_6utoipa5___dev4Tags4tags
FNDA:0,_RNvXs_NtNtNtNtCs16bWprmmhjH_5oauth8adapters3web11controllers15role_controllerNtB4_29___path_create_role_controllerNtCs7uGmPRfeiaR_6utoipa4Path4path
FNDA:0,_RNvXs_NtNtNtNtCs16bWprmmhjH_5oauth8adapters3web11controllers15role_controllerNtB4_29___path_create_role_controllerNtCs7uGmPRfeiaR_6utoipa4Path7methods
FNDA:0,_RNvXs_NtNtNtNtCs16bWprmmhjH_5oauth8adapters3web11controllers15role_controllerNtB4_29___path_create_role_controllerNtCs7uGmPRfeiaR_6utoipa4Path9operation
FNDA:0,_RNvXs0_NtNtNtNtCs16bWprmmhjH_5oauth8adapters3web11controllers15role_controllerNtB5_29___path_create_role_controllerNtNtCs7uGmPRfeiaR_6utoipa5___dev16SchemaReferences7schemas
FNDA:0,_RNvXs2_NtNtNtNtCs16bWprmmhjH_5oauth8adapters3web11controllers15role_controllerNtB5_22create_role_controllerNtNtCsb9zwYTRy8hm_9actix_web7service18HttpServiceFactory8register
FNDA:0,_RNvNvXs2_NtNtNtNtCs16bWprmmhjH_5oauth8adapters3web11controllers15role_controllerNtB7_22create_role_controllerNtNtCsb9zwYTRy8hm_9actix_web7service18HttpServiceFactory8register22create_role_controller
FNDA:0,_RNCNvNvXs2_NtNtNtNtCs16bWprmmhjH_5oauth8adapters3web11controllers15role_controllerNtB9_22create_role_controllerNtNtCsb9zwYTRy8hm_9actix_web7service18HttpServiceFactory8register22create_role_controller0Bh_
FNDA:0,_RNvXs3_NtNtNtNtCs16bWprmmhjH_5oauth8adapters3web11controllers15role_controllerNtB5_27___path_get_roles_controllerNtNtCs7uGmPRfeiaR_6utoipa5___dev4Tags4tags
FNDA:0,_RNvXs4_NtNtNtNtCs16bWprmmhjH_5oauth8adapters3web11controllers15role_controllerNtB5_27___path_get_roles_controllerNtCs7uGmPRfeiaR_6utoipa4Path4path
FNDA:0,_RNvXs4_NtNtNtNtCs16bWprmmhjH_5oauth8adapters3web11controllers15role_controllerNtB5_27___path_get_roles_controllerNtCs7uGmPRfeiaR_6utoipa4Path7methods
FNDA:0,_RNvXs4_NtNtNtNtCs16bWprmmhjH_5oauth8adapters3web11controllers15role_controllerNtB5_27___path_get_roles_controllerNtCs7uGmPRfeiaR_6utoipa4Path9operation
FNDA:0,_RNvXs5_NtNtNtNtCs16bWprmmhjH_5oauth8adapters3web11controllers15role_controllerNtB5_27___path_get_roles_controllerNtNtCs7uGmPRfeiaR_6utoipa5___dev16SchemaReferences7schemas
FNDA:0,_RNvXs7_NtNtNtNtCs16bWprmmhjH_5oauth8adapters3web11controllers15role_controllerNtB5_20get_roles_controllerNtNtCsb9zwYTRy8hm_9actix_web7service18HttpServiceFactory8register
FNDA:0,_RNvNvXs7_NtNtNtNtCs16bWprmmhjH_5oauth8adapters3web11controllers15role_controllerNtB7_20get_roles_controllerNtNtCsb9zwYTRy8hm_9actix_web7service18HttpServiceFactory8register20get_roles_controller
FNDA:0,_RNCNvNvXs7_NtNtNtNtCs16bWprmmhjH_5oauth8adapters3web11controllers15role_controllerNtB9_20get_roles_controllerNtNtCsb9zwYTRy8hm_9actix_web7service18HttpServiceFactory8register20get_roles_controller0Bh_
FNDA:0,_RNvXs8_NtNtNtNtCs16bWprmmhjH_5oauth8adapters3web11controllers15role_controllerNtB5_26___path_get_role_controllerNtNtCs7uGmPRfeiaR_6utoipa5___dev4Tags4tags
FNDA:0,_RNvXs9_NtNtNtNtCs16bWprmmhjH_5oauth8adapters3web11controllers15role_controllerNtB5_26___path_get_role_controllerNtCs7uGmPRfeiaR_6utoipa4Path4path
FNDA:0,_RNvXs9_NtNtNtNtCs16bWprmmhjH_5oauth8adapters3web11controllers15role_controllerNtB5_26___path_get_role_controllerNtCs7uGmPRfeiaR_6utoipa4Path7methods
FNDA:0,_RNvXs9_NtNtNtNtCs16bWprmmhjH_5oauth8adapters3web11controllers15role_controllerNtB5_26___path_get_role_controllerNtCs7uGmPRfeiaR_6utoipa4Path9operation
FNDA:0,_RNvXsa_NtNtNtNtCs16bWprmmhjH_5oauth8adapters3web11controllers15role_controllerNtB5_26___path_get_role_controllerNtNtCs7uGmPRfeiaR_6utoipa5___dev16SchemaReferences7schemas
FNDA:0,_RNvXsc_NtNtNtNtCs16bWprmmhjH_5oauth8adapters3web11controllers15role_controllerNtB5_19get_role_controllerNtNtCsb9zwYTRy8hm_9actix_web7service18HttpServiceFactory8register
FNDA:0,_RNvNvXsc_NtNtNtNtCs16bWprmmhjH_5oauth8adapters3web11controllers15role_controllerNtB7_19get_role_controllerNtNtCsb9zwYTRy8hm_9actix_web7service18HttpServiceFactory8register19get_role_controller
FNDA:0,_RNCNvNvXsc_NtNtNtNtCs16bWprmmhjH_5oauth8adapters3web11controllers15role_controllerNtB9_19get_role_controllerNtNtCsb9zwYTRy8hm_9actix_web7service18HttpServiceFactory8register19get_role_controller0Bh_
FNDA:0,_RNvXsd_NtNtNtNtCs16bWprmmhjH_5oauth8adapters3web11controllers15role_controllerNtB5_29___path_update_role_controllerNtNtCs7uGmPRfeiaR_6utoipa5___dev4Tags4tags
FNDA:0,_RNvXse_NtNtNtNtCs16bWprmmhjH_5oauth8adapters3web11controllers15role_controllerNtB5_29___path_update_role_controllerNtCs7uGmPRfeiaR_6utoipa4Path4path
FNDA:0,_RNvXse_NtNtNtNtCs16bWprmmhjH_5oauth8adapters3web11controllers15role_controllerNtB5_29___path_update_role_controllerNtCs7uGmPRfeiaR_6utoipa4Path7methods
FNDA:0,_RNvXse_NtNtNtNtCs16bWprmmhjH_5oauth8adapters3web11controllers15role_controllerNtB5_29___path_update_role_controllerNtCs7uGmPRfeiaR_6utoipa4Path9operation
FNDA:0,_RNvXsf_NtNtNtNtCs16bWprmmhjH_5oauth8adapters3web11controllers15role_controllerNtB5_29___path_update_role_controllerNtNtCs7uGmPRfeiaR_6utoipa5___dev16SchemaReferences7schemas
FNDA:0,_RNvXsh_NtNtNtNtCs16bWprmmhjH_5oauth8adapters3web11controllers15role_controllerNtB5_22update_role_controllerNtNtCsb9zwYTRy8hm_9actix_web7service18HttpServiceFactory8register
FNDA:0,_RNvNvXsh_NtNtNtNtCs16bWprmmhjH_5oauth8adapters3web11controllers15role_controllerNtB7_22update_role_controllerNtNtCsb9zwYTRy8hm_9actix_web7service18HttpServiceFactory8register22update_role_controller
FNDA:0,_RNCNvNvXsh_NtNtNtNtCs16bWprmmhjH_5oauth8adapters3web11controllers15role_controllerNtB9_22update_role_controllerNtNtCsb9zwYTRy8hm_9actix_web7service18HttpServiceFactory8register22update_role_controller0Bh_
FNDA:0,_RNvXsi_NtNtNtNtCs16bWprmmhjH_5oauth8adapters3web11controllers15role_controllerNtB5_28___path_patch_role_controllerNtNtCs7uGmPRfeiaR_6utoipa5___dev4Tags4tags
FNDA:0,_RNvXsj_NtNtNtNtCs16bWprmmhjH_5oauth8adapters3web11controllers15role_controllerNtB5_28___path_patch_role_controllerNtCs7uGmPRfeiaR_6utoipa4Path4path
FNDA:0,_RNvXsj_NtNtNtNtCs16bWprmmhjH_5oauth8adapters3web11controllers15role_controllerNtB5_28___path_patch_role_controllerNtCs7uGmPRfeiaR_6utoipa4Path7methods
FNDA:0,_RNvXsj_NtNtNtNtCs16bWprmmhjH_5oauth8adapters3web11controllers15role_controllerNtB5_28___path_patch_role_controllerNtCs7uGmPRfeiaR_6utoipa4Path9operation
FNDA:0,_RNvXsk_NtNtNtNtCs16bWprmmhjH_5oauth8adapters3web11controllers15role_controllerNtB5_28___path_patch_role_controllerNtNtCs7uGmPRfeiaR_6utoipa5___dev16SchemaReferences7schemas
FNDA:0,_RNvXsm_NtNtNtNtCs16bWprmmhjH_5oauth8adapters3web11controllers15role_controllerNtB5_21patch_role_controllerNtNtCsb9zwYTRy8hm_9actix_web7service18HttpServiceFactory8register
FNDA:0,_RNvNvXsm_NtNtNtNtCs16bWprmmhjH_5oauth8adapters3web11controllers15role_controllerNtB7_21patch_role_controllerNtNtCsb9zwYTRy8hm_9actix_web7service18HttpServiceFactory8register21patch_role_controller
FNDA:0,_RNCNvNvXsm_NtNtNtNtCs16bWprmmhjH_5oauth8adapters3web11controllers15role_controllerNtB9_21patch_role_controllerNtNtCsb9zwYTRy8hm_9actix_web7service18HttpServiceFactory8register21patch_role_controller0Bh_
FNDA:0,_RNvXsn_NtNtNtNtCs16bWprmmhjH_5oauth8adapters3web11controllers15role_controllerNtB5_29___path_delete_role_controllerNtNtCs7uGmPRfeiaR_6utoipa5___dev4Tags4tags
FNDA:0,_RNvXso_NtNtNtNtCs16bWprmmhjH_5oauth8adapters3web11controllers15role_controllerNtB5_29___path_delete_role_controllerNtCs7uGmPRfeiaR_6utoipa4Path4path
FNDA:0,_RNvXso_NtNtNtNtCs16bWprmmhjH_5oauth8adapters3web11controllers15role_controllerNtB5_29___path_delete_role_controllerNtCs7uGmPRfeiaR_6utoipa4Path7methods
FNDA:0,_RNvXso_NtNtNtNtCs16bWprmmhjH_5oauth8adapters3web11controllers15role_controllerNtB5_29___path_delete_role_controllerNtCs7uGmPRfeiaR_6utoipa4Path9operation
FNDA:0,_RNvXsp_NtNtNtNtCs16bWprmmhjH_5oauth8adapters3web11controllers15role_controllerNtB5_29___path_delete_role_controllerNtNtCs7uGmPRfeiaR_6utoipa5___dev16SchemaReferences7schemas
FNDA:0,_RNvXsr_NtNtNtNtCs16bWprmmhjH_5oauth8adapters3web11controllers15role_controllerNtB5_22delete_role_controllerNtNtCsb9zwYTRy8hm_9actix_web7service18HttpServiceFactory8register
FNDA:0,_RNvNvXsr_NtNtNtNtCs16bWprmmhjH_5oauth8adapters3web11controllers15role_controllerNtB7_22delete_role_controllerNtNtCsb9zwYTRy8hm_9actix_web7service18HttpServiceFactory8register22delete_role_controller
FNDA:0,_RNCNvNvXsr_NtNtNtNtCs16bWprmmhjH_5oauth8adapters3web11controllers15role_controllerNtB9_22delete_role_controllerNtNtCsb9zwYTRy8hm_9actix_web7service18HttpServiceFactory8register22delete_role_controller0Bh_
FNF:33
FNH:0
DA:11,0
DA:12,0
DA:13,0
DA:14,0
DA:15,0
DA:16,0
DA:17,0
DA:19,0
DA:20,0
DA:21,0
DA:22,0
DA:23,0
DA:24,0
DA:25,0
DA:26,0
DA:27,0
DA:28,0
DA:29,0
DA:30,0
DA:31,0
DA:32,0
DA:33,0
DA:34,0
DA:35,0
DA:36,0
DA:37,0
DA:38,0
DA:39,0
DA:40,0
DA:41,0
DA:42,0
DA:44,0
DA:45,0
DA:46,0
DA:47,0
DA:48,0
DA:49,0
DA:50,0
DA:51,0
DA:52,0
DA:53,0
DA:54,0
DA:55,0
DA:56,0
DA:57,0
DA:58,0
DA:59,0
DA:60,0
DA:62,0
DA:63,0
DA:64,0
DA:65,0
DA:66,0
DA:67,0
DA:68,0
DA:69,0
DA:70,0
DA:71,0
DA:72,0
DA:73,0
DA:74,0
DA:75,0
DA:76,0
DA:77,0
DA:78,0
DA:79,0
DA:80,0
DA:81,0
DA:82,0
DA:83,0
DA:85,0
DA:86,0
DA:87,0
DA:88,0
DA:89,0
DA:90,0
DA:91,0
DA:92,0
DA:93,0
DA:94,0
DA:95,0
DA:96,0
DA:97,0
DA:98,0
DA:99,0
DA:100,0
DA:101,0
DA:102,0
DA:103,0
DA:104,0
DA:105,0
DA:106,0
DA:107,0
DA:108,0
DA:109,0
DA:110,0
DA:111,0
DA:112,0
DA:113,0
DA:114,0
DA:115,0
DA:116,0
DA:118,0
DA:119,0
DA:120,0
DA:121,0
DA:122,0
DA:123,0
DA:124,0
DA:125,0
DA:126,0
DA:127,0
DA:128,0
DA:129,0
DA:130,0
DA:131,0
DA:132,0
DA:133,0
DA:134,0
DA:135,0
DA:136,0
DA:137,0
DA:138,0
DA:139,0
DA:140,0
DA:141,0
DA:142,0
DA:143,0
DA:144,0
DA:145,0
DA:146,0
DA:147,0
DA:148,0
DA:149,0
DA:151,0
DA:152,0
DA:153,0
DA:154,0
DA:155,0
DA:156,0
DA:157,0
DA:158,0
DA:159,0
DA:160,0
DA:161,0
DA:162,0
DA:163,0
DA:164,0
DA:165,0
DA:166,0
DA:167,0
DA:168,0
DA:169,0
DA:170,0
DA:171,0
DA:172,0
BRF:0
BRH:0
LF:170
LH:0
end_of_record
SF:/workspace/base/backend/oauth/src/adapters/web/controllers/user_controller.rs
FN:24,_RNCNvNtNtNtNtCskY3J53qhLT7_5oauth8adapters3web11controllers15user_controller13extract_token0Bb_
FN:25,_RNCNvNtNtNtNtCskY3J53qhLT7_5oauth8adapters3web11controllers15user_controller13extract_tokens_0Bb_
FN:47,_RNCNvNvXs4_NtNtNtNtCskY3J53qhLT7_5oauth8adapters3web11controllers15user_controllerNtB9_22create_user_controllerNtNtCsb9zwYTRy8hm_9actix_web7service18HttpServiceFactory8register22create_user_controller0Bh_
FN:65,_RNCNvNvXs9_NtNtNtNtCskY3J53qhLT7_5oauth8adapters3web11controllers15user_controllerNtB9_20get_users_controllerNtNtCsb9zwYTRy8hm_9actix_web7service18HttpServiceFactory8register20get_users_controller0Bh_
FN:87,_RNCNvNvXse_NtNtNtNtCskY3J53qhLT7_5oauth8adapters3web11controllers15user_controllerNtB9_19get_user_controllerNtNtCsb9zwYTRy8hm_9actix_web7service18HttpServiceFactory8register19get_user_controller0Bh_
FN:120,_RNCNvNvXsj_NtNtNtNtCskY3J53qhLT7_5oauth8adapters3web11controllers15user_controllerNtB9_22update_user_controllerNtNtCsb9zwYTRy8hm_9actix_web7service18HttpServiceFactory8register22update_user_controller0Bh_
FN:154,_RNCNvNvXso_NtNtNtNtCskY3J53qhLT7_5oauth8adapters3web11controllers15user_controllerNtB9_26update_password_controllerNtNtCsb9zwYTRy8hm_9actix_web7service18HttpServiceFactory8register26update_password_controller0Bh_
FN:177,_RNCNvNvXst_NtNtNtNtCskY3J53qhLT7_5oauth8adapters3web11controllers15user_controllerNtB9_22delete_user_controllerNtNtCsb9zwYTRy8hm_9actix_web7service18HttpServiceFactory8register22delete_user_controller0Bh_
FN:210,_RNCNvNvXsy_NtNtNtNtCskY3J53qhLT7_5oauth8adapters3web11controllers15user_controllerNtB9_27add_role_to_user_controllerNtNtCsb9zwYTRy8hm_9actix_web7service18HttpServiceFactory8register27add_role_to_user_controller0Bh_
FN:237,_RNCNvNvXsD_NtNtNtNtCskY3J53qhLT7_5oauth8adapters3web11controllers15user_controllerNtB9_32remove_role_from_user_controllerNtNtCsb9zwYTRy8hm_9actix_web7service18HttpServiceFactory8register32remove_role_from_user_controller0Bh_
FN:21,_RNvNtNtNtNtCskY3J53qhLT7_5oauth8adapters3web11controllers15user_controller13extract_token
FN:16,_RNvXNtNtNtNtCskY3J53qhLT7_5oauth8adapters3web11controllers15user_controllerNtB2_17PasswordUpdateReqNtNtCs7uGmPRfeiaR_6utoipa5___dev13ComposeSchema7compose
FN:16,_RNvXs_NtNtNtNtCskY3J53qhLT7_5oauth8adapters3web11controllers15user_controllerNtB4_17PasswordUpdateReqNtCs7uGmPRfeiaR_6utoipa8ToSchema4name
FN:16,_RNvXs_NtNtNtNtCskY3J53qhLT7_5oauth8adapters3web11controllers15user_controllerNtB4_17PasswordUpdateReqNtCs7uGmPRfeiaR_6utoipa8ToSchema7schemas
FN:30,_RNvXs0_NtNtNtNtCskY3J53qhLT7_5oauth8adapters3web11controllers15user_controllerNtB5_29___path_create_user_controllerNtNtCs7uGmPRfeiaR_6utoipa5___dev4Tags4tags
FN:30,_RNvXs1_NtNtNtNtCskY3J53qhLT7_5oauth8adapters3web11controllers15user_controllerNtB5_29___path_create_user_controllerNtCs7uGmPRfeiaR_6utoipa4Path4path
FN:30,_RNvXs1_NtNtNtNtCskY3J53qhLT7_5oauth8adapters3web11controllers15user_controllerNtB5_29___path_create_user_controllerNtCs7uGmPRfeiaR_6utoipa4Path7methods
FN:45,_RNvXs1_NtNtNtNtCskY3J53qhLT7_5oauth8adapters3web11controllers15user_controllerNtB5_29___path_create_user_controllerNtCs7uGmPRfeiaR_6utoipa4Path9operation
FN:30,_RNvXs2_NtNtNtNtCskY3J53qhLT7_5oauth8adapters3web11controllers15user_controllerNtB5_29___path_create_user_controllerNtNtCs7uGmPRfeiaR_6utoipa5___dev16SchemaReferences7schemas
FN:46,_RNvXs4_NtNtNtNtCskY3J53qhLT7_5oauth8adapters3web11controllers15user_controllerNtB5_22create_user_controllerNtNtCsb9zwYTRy8hm_9actix_web7service18HttpServiceFactory8register
FN:47,_RNvNvXs4_NtNtNtNtCskY3J53qhLT7_5oauth8adapters3web11controllers15user_controllerNtB7_22create_user_controllerNtNtCsb9zwYTRy8hm_9actix_web7service18HttpServiceFactory8register22create_user_controller
FN:54,_RNvXs5_NtNtNtNtCskY3J53qhLT7_5oauth8adapters3web11controllers15user_controllerNtB5_27___path_get_users_controllerNtNtCs7uGmPRfeiaR_6utoipa5___dev4Tags4tags
FN:54,_RNvXs6_NtNtNtNtCskY3J53qhLT7_5oauth8adapters3web11controllers15user_controllerNtB5_27___path_get_users_controllerNtCs7uGmPRfeiaR_6utoipa4Path4path
FN:54,_RNvXs6_NtNtNtNtCskY3J53qhLT7_5oauth8adapters3web11controllers15user_controllerNtB5_27___path_get_users_controllerNtCs7uGmPRfeiaR_6utoipa4Path7methods
FN:63,_RNvXs6_NtNtNtNtCskY3J53qhLT7_5oauth8adapters3web11controllers15user_controllerNtB5_27___path_get_users_controllerNtCs7uGmPRfeiaR_6utoipa4Path9operation
FN:54,_RNvXs7_NtNtNtNtCskY3J53qhLT7_5oauth8adapters3web11controllers15user_controllerNtB5_27___path_get_users_controllerNtNtCs7uGmPRfeiaR_6utoipa5___dev16SchemaReferences7schemas
FN:64,_RNvXs9_NtNtNtNtCskY3J53qhLT7_5oauth8adapters3web11controllers15user_controllerNtB5_20get_users_controllerNtNtCsb9zwYTRy8hm_9actix_web7service18HttpServiceFactory8register
FN:65,_RNvNvXs9_NtNtNtNtCskY3J53qhLT7_5oauth8adapters3web11controllers15user_controllerNtB7_20get_users_controllerNtNtCsb9zwYTRy8hm_9actix_web7service18HttpServiceFactory8register20get_users_controller
FN:72,_RNvXsa_NtNtNtNtCskY3J53qhLT7_5oauth8adapters3web11controllers15user_controllerNtB5_26___path_get_user_controllerNtNtCs7uGmPRfeiaR_6utoipa5___dev4Tags4tags
FN:72,_RNvXsb_NtNtNtNtCskY3J53qhLT7_5oauth8adapters3web11controllers15user_controllerNtB5_26___path_get_user_controllerNtCs7uGmPRfeiaR_6utoipa4Path4path
FN:72,_RNvXsb_NtNtNtNtCskY3J53qhLT7_5oauth8adapters3web11controllers15user_controllerNtB5_26___path_get_user_controllerNtCs7uGmPRfeiaR_6utoipa4Path7methods
FN:85,_RNvXsb_NtNtNtNtCskY3J53qhLT7_5oauth8adapters3web11controllers15user_controllerNtB5_26___path_get_user_controllerNtCs7uGmPRfeiaR_6utoipa4Path9operation
FN:72,_RNvXsc_NtNtNtNtCskY3J53qhLT7_5oauth8adapters3web11controllers15user_controllerNtB5_26___path_get_user_controllerNtNtCs7uGmPRfeiaR_6utoipa5___dev16SchemaReferences7schemas
FN:86,_RNvXse_NtNtNtNtCskY3J53qhLT7_5oauth8adapters3web11controllers15user_controllerNtB5_19get_user_controllerNtNtCsb9zwYTRy8hm_9actix_web7service18HttpServiceFactory8register
FN:87,_RNvNvXse_NtNtNtNtCskY3J53qhLT7_5oauth8adapters3web11controllers15user_controllerNtB7_19get_user_controllerNtNtCsb9zwYTRy8hm_9actix_web7service18HttpServiceFactory8register19get_user_controller
FN:95,_RNvXsf_NtNtNtNtCskY3J53qhLT7_5oauth8adapters3web11controllers15user_controllerNtB5_29___path_update_user_controllerNtNtCs7uGmPRfeiaR_6utoipa5___dev4Tags4tags
FN:95,_RNvXsg_NtNtNtNtCskY3J53qhLT7_5oauth8adapters3web11controllers15user_controllerNtB5_29___path_update_user_controllerNtCs7uGmPRfeiaR_6utoipa4Path4path
FN:95,_RNvXsg_NtNtNtNtCskY3J53qhLT7_5oauth8adapters3web11controllers15user_controllerNtB5_29___path_update_user_controllerNtCs7uGmPRfeiaR_6utoipa4Path7methods
FN:114,_RNvXsg_NtNtNtNtCskY3J53qhLT7_5oauth8adapters3web11controllers15user_controllerNtB5_29___path_update_user_controllerNtCs7uGmPRfeiaR_6utoipa4Path9operation
FN:95,_RNvXsh_NtNtNtNtCskY3J53qhLT7_5oauth8adapters3web11controllers15user_controllerNtB5_29___path_update_user_controllerNtNtCs7uGmPRfeiaR_6utoipa5___dev16SchemaReferences7schemas
FN:115,_RNvXsj_NtNtNtNtCskY3J53qhLT7_5oauth8adapters3web11controllers15user_controllerNtB5_22update_user_controllerNtNtCsb9zwYTRy8hm_9actix_web7service18HttpServiceFactory8register
FN:116,_RNvNvXsj_NtNtNtNtCskY3J53qhLT7_5oauth8adapters3web11controllers15user_controllerNtB7_22update_user_controllerNtNtCsb9zwYTRy8hm_9actix_web7service18HttpServiceFactory8register22update_user_controller
FN:129,_RNvXsk_NtNtNtNtCskY3J53qhLT7_5oauth8adapters3web11controllers15user_controllerNtB5_33___path_update_password_controllerNtNtCs7uGmPRfeiaR_6utoipa5___dev4Tags4tags
FN:129,_RNvXsl_NtNtNtNtCskY3J53qhLT7_5oauth8adapters3web11controllers15user_controllerNtB5_33___path_update_password_controllerNtCs7uGmPRfeiaR_6utoipa4Path4path
FN:129,_RNvXsl_NtNtNtNtCskY3J53qhLT7_5oauth8adapters3web11controllers15user_controllerNtB5_33___path_update_password_controllerNtCs7uGmPRfeiaR_6utoipa4Path7methods
FN:148,_RNvXsl_NtNtNtNtCskY3J53qhLT7_5oauth8adapters3web11controllers15user_controllerNtB5_33___path_update_password_controllerNtCs7uGmPRfeiaR_6utoipa4Path9operation
FN:129,_RNvXsm_NtNtNtNtCskY3J53qhLT7_5oauth8adapters3web11controllers15user_controllerNtB5_33___path_update_password_controllerNtNtCs7uGmPRfeiaR_6utoipa5___dev16SchemaReferences7schemas
FN:149,_RNvXso_NtNtNtNtCskY3J53qhLT7_5oauth8adapters3web11controllers15user_controllerNtB5_26update_password_controllerNtNtCsb9zwYTRy8hm_9actix_web7service18HttpServiceFactory8register
FN:150,_RNvNvXso_NtNtNtNtCskY3J53qhLT7_5oauth8adapters3web11controllers15user_controllerNtB7_26update_password_controllerNtNtCsb9zwYTRy8hm_9actix_web7service18HttpServiceFactory8register26update_password_controller
FN:162,_RNvXsp_NtNtNtNtCskY3J53qhLT7_5oauth8adapters3web11controllers15user_controllerNtB5_29___path_delete_user_controllerNtNtCs7uGmPRfeiaR_6utoipa5___dev4Tags4tags
FN:162,_RNvXsq_NtNtNtNtCskY3J53qhLT7_5oauth8adapters3web11controllers15user_controllerNtB5_29___path_delete_user_controllerNtCs7uGmPRfeiaR_6utoipa4Path4path
FN:162,_RNvXsq_NtNtNtNtCskY3J53qhLT7_5oauth8adapters3web11controllers15user_controllerNtB5_29___path_delete_user_controllerNtCs7uGmPRfeiaR_6utoipa4Path7methods
FN:175,_RNvXsq_NtNtNtNtCskY3J53qhLT7_5oauth8adapters3web11controllers15user_controllerNtB5_29___path_delete_user_controllerNtCs7uGmPRfeiaR_6utoipa4Path9operation
FN:162,_RNvXsr_NtNtNtNtCskY3J53qhLT7_5oauth8adapters3web11controllers15user_controllerNtB5_29___path_delete_user_controllerNtNtCs7uGmPRfeiaR_6utoipa5___dev16SchemaReferences7schemas
FN:176,_RNvXst_NtNtNtNtCskY3J53qhLT7_5oauth8adapters3web11controllers15user_controllerNtB5_22delete_user_controllerNtNtCsb9zwYTRy8hm_9actix_web7service18HttpServiceFactory8register
FN:177,_RNvNvXst_NtNtNtNtCskY3J53qhLT7_5oauth8adapters3web11controllers15user_controllerNtB7_22delete_user_controllerNtNtCsb9zwYTRy8hm_9actix_web7service18HttpServiceFactory8register22delete_user_controller
FN:185,_RNvXsu_NtNtNtNtCskY3J53qhLT7_5oauth8adapters3web11controllers15user_controllerNtB5_34___path_add_role_to_user_controllerNtNtCs7uGmPRfeiaR_6utoipa5___dev4Tags4tags
FN:185,_RNvXsv_NtNtNtNtCskY3J53qhLT7_5oauth8adapters3web11controllers15user_controllerNtB5_34___path_add_role_to_user_controllerNtCs7uGmPRfeiaR_6utoipa4Path4path
FN:185,_RNvXsv_NtNtNtNtCskY3J53qhLT7_5oauth8adapters3web11controllers15user_controllerNtB5_34___path_add_role_to_user_controllerNtCs7uGmPRfeiaR_6utoipa4Path7methods
FN:204,_RNvXsv_NtNtNtNtCskY3J53qhLT7_5oauth8adapters3web11controllers15user_controllerNtB5_34___path_add_role_to_user_controllerNtCs7uGmPRfeiaR_6utoipa4Path9operation
FN:185,_RNvXsw_NtNtNtNtCskY3J53qhLT7_5oauth8adapters3web11controllers15user_controllerNtB5_34___path_add_role_to_user_controllerNtNtCs7uGmPRfeiaR_6utoipa5___dev16SchemaReferences7schemas
FN:205,_RNvXsy_NtNtNtNtCskY3J53qhLT7_5oauth8adapters3web11controllers15user_controllerNtB5_27add_role_to_user_controllerNtNtCsb9zwYTRy8hm_9actix_web7service18HttpServiceFactory8register
FN:206,_RNvNvXsy_NtNtNtNtCskY3J53qhLT7_5oauth8adapters3web11controllers15user_controllerNtB7_27add_role_to_user_controllerNtNtCsb9zwYTRy8hm_9actix_web7service18HttpServiceFactory8register27add_role_to_user_controller
FN:218,_RNvXsz_NtNtNtNtCskY3J53qhLT7_5oauth8adapters3web11controllers15user_controllerNtB5_39___path_remove_role_from_user_controllerNtNtCs7uGmPRfeiaR_6utoipa5___dev4Tags4tags
FN:218,_RNvXsA_NtNtNtNtCskY3J53qhLT7_5oauth8adapters3web11controllers15user_controllerNtB5_39___path_remove_role_from_user_controllerNtCs7uGmPRfeiaR_6utoipa4Path4path
FN:218,_RNvXsA_NtNtNtNtCskY3J53qhLT7_5oauth8adapters3web11controllers15user_controllerNtB5_39___path_remove_role_from_user_controllerNtCs7uGmPRfeiaR_6utoipa4Path7methods
FN:232,_RNvXsA_NtNtNtNtCskY3J53qhLT7_5oauth8adapters3web11controllers15user_controllerNtB5_39___path_remove_role_from_user_controllerNtCs7uGmPRfeiaR_6utoipa4Path9operation
FN:218,_RNvXsB_NtNtNtNtCskY3J53qhLT7_5oauth8adapters3web11controllers15user_controllerNtB5_39___path_remove_role_from_user_controllerNtNtCs7uGmPRfeiaR_6utoipa5___dev16SchemaReferences7schemas
FN:233,_RNvXsD_NtNtNtNtCskY3J53qhLT7_5oauth8adapters3web11controllers15user_controllerNtB5_32remove_role_from_user_controllerNtNtCsb9zwYTRy8hm_9actix_web7service18HttpServiceFactory8register
FN:234,_RNvNvXsD_NtNtNtNtCskY3J53qhLT7_5oauth8adapters3web11controllers15user_controllerNtB7_32remove_role_from_user_controllerNtNtCsb9zwYTRy8hm_9actix_web7service18HttpServiceFactory8register32remove_role_from_user_controller
FN:16,_RNvXNtNtNtNtCs16bWprmmhjH_5oauth8adapters3web11controllers15user_controllerNtB2_17PasswordUpdateReqNtNtCs7uGmPRfeiaR_6utoipa5___dev13ComposeSchema7compose
FN:16,_RNvXs_NtNtNtNtCs16bWprmmhjH_5oauth8adapters3web11controllers15user_controllerNtB4_17PasswordUpdateReqNtCs7uGmPRfeiaR_6utoipa8ToSchema4name
FN:16,_RNvXs_NtNtNtNtCs16bWprmmhjH_5oauth8adapters3web11controllers15user_controllerNtB4_17PasswordUpdateReqNtCs7uGmPRfeiaR_6utoipa8ToSchema7schemas
FN:21,_RNvNtNtNtNtCs16bWprmmhjH_5oauth8adapters3web11controllers15user_controller13extract_token
FN:24,_RNCNvNtNtNtNtCs16bWprmmhjH_5oauth8adapters3web11controllers15user_controller13extract_token0Bb_
FN:25,_RNCNvNtNtNtNtCs16bWprmmhjH_5oauth8adapters3web11controllers15user_controller13extract_tokens_0Bb_
FN:30,_RNvXs0_NtNtNtNtCs16bWprmmhjH_5oauth8adapters3web11controllers15user_controllerNtB5_29___path_create_user_controllerNtNtCs7uGmPRfeiaR_6utoipa5___dev4Tags4tags
FN:30,_RNvXs1_NtNtNtNtCs16bWprmmhjH_5oauth8adapters3web11controllers15user_controllerNtB5_29___path_create_user_controllerNtCs7uGmPRfeiaR_6utoipa4Path4path
FN:30,_RNvXs1_NtNtNtNtCs16bWprmmhjH_5oauth8adapters3web11controllers15user_controllerNtB5_29___path_create_user_controllerNtCs7uGmPRfeiaR_6utoipa4Path7methods
FN:45,_RNvXs1_NtNtNtNtCs16bWprmmhjH_5oauth8adapters3web11controllers15user_controllerNtB5_29___path_create_user_controllerNtCs7uGmPRfeiaR_6utoipa4Path9operation
FN:30,_RNvXs2_NtNtNtNtCs16bWprmmhjH_5oauth8adapters3web11controllers15user_controllerNtB5_29___path_create_user_controllerNtNtCs7uGmPRfeiaR_6utoipa5___dev16SchemaReferences7schemas
FN:46,_RNvXs4_NtNtNtNtCs16bWprmmhjH_5oauth8adapters3web11controllers15user_controllerNtB5_22create_user_controllerNtNtCsb9zwYTRy8hm_9actix_web7service18HttpServiceFactory8register
FN:47,_RNvNvXs4_NtNtNtNtCs16bWprmmhjH_5oauth8adapters3web11controllers15user_controllerNtB7_22create_user_controllerNtNtCsb9zwYTRy8hm_9actix_web7service18HttpServiceFactory8register22create_user_controller
FN:47,_RNCNvNvXs4_NtNtNtNtCs16bWprmmhjH_5oauth8adapters3web11controllers15user_controllerNtB9_22create_user_controllerNtNtCsb9zwYTRy8hm_9actix_web7service18HttpServiceFactory8register22create_user_controller0Bh_
FN:54,_RNvXs5_NtNtNtNtCs16bWprmmhjH_5oauth8adapters3web11controllers15user_controllerNtB5_27___path_get_users_controllerNtNtCs7uGmPRfeiaR_6utoipa5___dev4Tags4tags
FN:54,_RNvXs6_NtNtNtNtCs16bWprmmhjH_5oauth8adapters3web11controllers15user_controllerNtB5_27___path_get_users_controllerNtCs7uGmPRfeiaR_6utoipa4Path4path
FN:54,_RNvXs6_NtNtNtNtCs16bWprmmhjH_5oauth8adapters3web11controllers15user_controllerNtB5_27___path_get_users_controllerNtCs7uGmPRfeiaR_6utoipa4Path7methods
FN:63,_RNvXs6_NtNtNtNtCs16bWprmmhjH_5oauth8adapters3web11controllers15user_controllerNtB5_27___path_get_users_controllerNtCs7uGmPRfeiaR_6utoipa4Path9operation
FN:54,_RNvXs7_NtNtNtNtCs16bWprmmhjH_5oauth8adapters3web11controllers15user_controllerNtB5_27___path_get_users_controllerNtNtCs7uGmPRfeiaR_6utoipa5___dev16SchemaReferences7schemas
FN:64,_RNvXs9_NtNtNtNtCs16bWprmmhjH_5oauth8adapters3web11controllers15user_controllerNtB5_20get_users_controllerNtNtCsb9zwYTRy8hm_9actix_web7service18HttpServiceFactory8register
FN:65,_RNvNvXs9_NtNtNtNtCs16bWprmmhjH_5oauth8adapters3web11controllers15user_controllerNtB7_20get_users_controllerNtNtCsb9zwYTRy8hm_9actix_web7service18HttpServiceFactory8register20get_users_controller
FN:65,_RNCNvNvXs9_NtNtNtNtCs16bWprmmhjH_5oauth8adapters3web11controllers15user_controllerNtB9_20get_users_controllerNtNtCsb9zwYTRy8hm_9actix_web7service18HttpServiceFactory8register20get_users_controller0Bh_
FN:72,_RNvXsa_NtNtNtNtCs16bWprmmhjH_5oauth8adapters3web11controllers15user_controllerNtB5_26___path_get_user_controllerNtNtCs7uGmPRfeiaR_6utoipa5___dev4Tags4tags
FN:72,_RNvXsb_NtNtNtNtCs16bWprmmhjH_5oauth8adapters3web11controllers15user_controllerNtB5_26___path_get_user_controllerNtCs7uGmPRfeiaR_6utoipa4Path4path
FN:72,_RNvXsb_NtNtNtNtCs16bWprmmhjH_5oauth8adapters3web11controllers15user_controllerNtB5_26___path_get_user_controllerNtCs7uGmPRfeiaR_6utoipa4Path7methods
FN:85,_RNvXsb_NtNtNtNtCs16bWprmmhjH_5oauth8adapters3web11controllers15user_controllerNtB5_26___path_get_user_controllerNtCs7uGmPRfeiaR_6utoipa4Path9operation
FN:72,_RNvXsc_NtNtNtNtCs16bWprmmhjH_5oauth8adapters3web11controllers15user_controllerNtB5_26___path_get_user_controllerNtNtCs7uGmPRfeiaR_6utoipa5___dev16SchemaReferences7schemas
FN:86,_RNvXse_NtNtNtNtCs16bWprmmhjH_5oauth8adapters3web11controllers15user_controllerNtB5_19get_user_controllerNtNtCsb9zwYTRy8hm_9actix_web7service18HttpServiceFactory8register
FN:87,_RNvNvXse_NtNtNtNtCs16bWprmmhjH_5oauth8adapters3web11controllers15user_controllerNtB7_19get_user_controllerNtNtCsb9zwYTRy8hm_9actix_web7service18HttpServiceFactory8register19get_user_controller
FN:87,_RNCNvNvXse_NtNtNtNtCs16bWprmmhjH_5oauth8adapters3web11controllers15user_controllerNtB9_19get_user_controllerNtNtCsb9zwYTRy8hm_9actix_web7service18HttpServiceFactory8register19get_user_controller0Bh_
FN:95,_RNvXsf_NtNtNtNtCs16bWprmmhjH_5oauth8adapters3web11controllers15user_controllerNtB5_29___path_update_user_controllerNtNtCs7uGmPRfeiaR_6utoipa5___dev4Tags4tags
FN:95,_RNvXsg_NtNtNtNtCs16bWprmmhjH_5oauth8adapters3web11controllers15user_controllerNtB5_29___path_update_user_controllerNtCs7uGmPRfeiaR_6utoipa4Path4path
FN:95,_RNvXsg_NtNtNtNtCs16bWprmmhjH_5oauth8adapters3web11controllers15user_controllerNtB5_29___path_update_user_controllerNtCs7uGmPRfeiaR_6utoipa4Path7methods
FN:114,_RNvXsg_NtNtNtNtCs16bWprmmhjH_5oauth8adapters3web11controllers15user_controllerNtB5_29___path_update_user_controllerNtCs7uGmPRfeiaR_6utoipa4Path9operation
FN:95,_RNvXsh_NtNtNtNtCs16bWprmmhjH_5oauth8adapters3web11controllers15user_controllerNtB5_29___path_update_user_controllerNtNtCs7uGmPRfeiaR_6utoipa5___dev16SchemaReferences7schemas
FN:115,_RNvXsj_NtNtNtNtCs16bWprmmhjH_5oauth8adapters3web11controllers15user_controllerNtB5_22update_user_controllerNtNtCsb9zwYTRy8hm_9actix_web7service18HttpServiceFactory8register
FN:116,_RNvNvXsj_NtNtNtNtCs16bWprmmhjH_5oauth8adapters3web11controllers15user_controllerNtB7_22update_user_controllerNtNtCsb9zwYTRy8hm_9actix_web7service18HttpServiceFactory8register22update_user_controller
FN:120,_RNCNvNvXsj_NtNtNtNtCs16bWprmmhjH_5oauth8adapters3web11controllers15user_controllerNtB9_22update_user_controllerNtNtCsb9zwYTRy8hm_9actix_web7service18HttpServiceFactory8register22update_user_controller0Bh_
FN:129,_RNvXsk_NtNtNtNtCs16bWprmmhjH_5oauth8adapters3web11controllers15user_controllerNtB5_33___path_update_password_controllerNtNtCs7uGmPRfeiaR_6utoipa5___dev4Tags4tags
FN:129,_RNvXsl_NtNtNtNtCs16bWprmmhjH_5oauth8adapters3web11controllers15user_controllerNtB5_33___path_update_password_controllerNtCs7uGmPRfeiaR_6utoipa4Path4path
FN:129,_RNvXsl_NtNtNtNtCs16bWprmmhjH_5oauth8adapters3web11controllers15user_controllerNtB5_33___path_update_password_controllerNtCs7uGmPRfeiaR_6utoipa4Path7methods
FN:148,_RNvXsl_NtNtNtNtCs16bWprmmhjH_5oauth8adapters3web11controllers15user_controllerNtB5_33___path_update_password_controllerNtCs7uGmPRfeiaR_6utoipa4Path9operation
FN:129,_RNvXsm_NtNtNtNtCs16bWprmmhjH_5oauth8adapters3web11controllers15user_controllerNtB5_33___path_update_password_controllerNtNtCs7uGmPRfeiaR_6utoipa5___dev16SchemaReferences7schemas
FN:149,_RNvXso_NtNtNtNtCs16bWprmmhjH_5oauth8adapters3web11controllers15user_controllerNtB5_26update_password_controllerNtNtCsb9zwYTRy8hm_9actix_web7service18HttpServiceFactory8register
FN:150,_RNvNvXso_NtNtNtNtCs16bWprmmhjH_5oauth8adapters3web11controllers15user_controllerNtB7_26update_password_controllerNtNtCsb9zwYTRy8hm_9actix_web7service18HttpServiceFactory8register26update_password_controller
FN:154,_RNCNvNvXso_NtNtNtNtCs16bWprmmhjH_5oauth8adapters3web11controllers15user_controllerNtB9_26update_password_controllerNtNtCsb9zwYTRy8hm_9actix_web7service18HttpServiceFactory8register26update_password_controller0Bh_
FN:162,_RNvXsp_NtNtNtNtCs16bWprmmhjH_5oauth8adapters3web11controllers15user_controllerNtB5_29___path_delete_user_controllerNtNtCs7uGmPRfeiaR_6utoipa5___dev4Tags4tags
FN:162,_RNvXsq_NtNtNtNtCs16bWprmmhjH_5oauth8adapters3web11controllers15user_controllerNtB5_29___path_delete_user_controllerNtCs7uGmPRfeiaR_6utoipa4Path4path
FN:162,_RNvXsq_NtNtNtNtCs16bWprmmhjH_5oauth8adapters3web11controllers15user_controllerNtB5_29___path_delete_user_controllerNtCs7uGmPRfeiaR_6utoipa4Path7methods
FN:175,_RNvXsq_NtNtNtNtCs16bWprmmhjH_5oauth8adapters3web11controllers15user_controllerNtB5_29___path_delete_user_controllerNtCs7uGmPRfeiaR_6utoipa4Path9operation
FN:162,_RNvXsr_NtNtNtNtCs16bWprmmhjH_5oauth8adapters3web11controllers15user_controllerNtB5_29___path_delete_user_controllerNtNtCs7uGmPRfeiaR_6utoipa5___dev16SchemaReferences7schemas
FN:176,_RNvXst_NtNtNtNtCs16bWprmmhjH_5oauth8adapters3web11controllers15user_controllerNtB5_22delete_user_controllerNtNtCsb9zwYTRy8hm_9actix_web7service18HttpServiceFactory8register
FN:177,_RNvNvXst_NtNtNtNtCs16bWprmmhjH_5oauth8adapters3web11controllers15user_controllerNtB7_22delete_user_controllerNtNtCsb9zwYTRy8hm_9actix_web7service18HttpServiceFactory8register22delete_user_controller
FN:177,_RNCNvNvXst_NtNtNtNtCs16bWprmmhjH_5oauth8adapters3web11controllers15user_controllerNtB9_22delete_user_controllerNtNtCsb9zwYTRy8hm_9actix_web7service18HttpServiceFactory8register22delete_user_controller0Bh_
FN:185,_RNvXsu_NtNtNtNtCs16bWprmmhjH_5oauth8adapters3web11controllers15user_controllerNtB5_34___path_add_role_to_user_controllerNtNtCs7uGmPRfeiaR_6utoipa5___dev4Tags4tags
FN:185,_RNvXsv_NtNtNtNtCs16bWprmmhjH_5oauth8adapters3web11controllers15user_controllerNtB5_34___path_add_role_to_user_controllerNtCs7uGmPRfeiaR_6utoipa4Path4path
FN:185,_RNvXsv_NtNtNtNtCs16bWprmmhjH_5oauth8adapters3web11controllers15user_controllerNtB5_34___path_add_role_to_user_controllerNtCs7uGmPRfeiaR_6utoipa4Path7methods
FN:204,_RNvXsv_NtNtNtNtCs16bWprmmhjH_5oauth8adapters3web11controllers15user_controllerNtB5_34___path_add_role_to_user_controllerNtCs7uGmPRfeiaR_6utoipa4Path9operation
FN:185,_RNvXsw_NtNtNtNtCs16bWprmmhjH_5oauth8adapters3web11controllers15user_controllerNtB5_34___path_add_role_to_user_controllerNtNtCs7uGmPRfeiaR_6utoipa5___dev16SchemaReferences7schemas
FN:205,_RNvXsy_NtNtNtNtCs16bWprmmhjH_5oauth8adapters3web11controllers15user_controllerNtB5_27add_role_to_user_controllerNtNtCsb9zwYTRy8hm_9actix_web7service18HttpServiceFactory8register
FN:206,_RNvNvXsy_NtNtNtNtCs16bWprmmhjH_5oauth8adapters3web11controllers15user_controllerNtB7_27add_role_to_user_controllerNtNtCsb9zwYTRy8hm_9actix_web7service18HttpServiceFactory8register27add_role_to_user_controller
FN:210,_RNCNvNvXsy_NtNtNtNtCs16bWprmmhjH_5oauth8adapters3web11controllers15user_controllerNtB9_27add_role_to_user_controllerNtNtCsb9zwYTRy8hm_9actix_web7service18HttpServiceFactory8register27add_role_to_user_controller0Bh_
FN:218,_RNvXsz_NtNtNtNtCs16bWprmmhjH_5oauth8adapters3web11controllers15user_controllerNtB5_39___path_remove_role_from_user_controllerNtNtCs7uGmPRfeiaR_6utoipa5___dev4Tags4tags
FN:218,_RNvXsA_NtNtNtNtCs16bWprmmhjH_5oauth8adapters3web11controllers15user_controllerNtB5_39___path_remove_role_from_user_controllerNtCs7uGmPRfeiaR_6utoipa4Path4path
FN:218,_RNvXsA_NtNtNtNtCs16bWprmmhjH_5oauth8adapters3web11controllers15user_controllerNtB5_39___path_remove_role_from_user_controllerNtCs7uGmPRfeiaR_6utoipa4Path7methods
FN:232,_RNvXsA_NtNtNtNtCs16bWprmmhjH_5oauth8adapters3web11controllers15user_controllerNtB5_39___path_remove_role_from_user_controllerNtCs7uGmPRfeiaR_6utoipa4Path9operation
FN:218,_RNvXsB_NtNtNtNtCs16bWprmmhjH_5oauth8adapters3web11controllers15user_controllerNtB5_39___path_remove_role_from_user_controllerNtNtCs7uGmPRfeiaR_6utoipa5___dev16SchemaReferences7schemas
FN:233,_RNvXsD_NtNtNtNtCs16bWprmmhjH_5oauth8adapters3web11controllers15user_controllerNtB5_32remove_role_from_user_controllerNtNtCsb9zwYTRy8hm_9actix_web7service18HttpServiceFactory8register
FN:234,_RNvNvXsD_NtNtNtNtCs16bWprmmhjH_5oauth8adapters3web11controllers15user_controllerNtB7_32remove_role_from_user_controllerNtNtCsb9zwYTRy8hm_9actix_web7service18HttpServiceFactory8register32remove_role_from_user_controller
FN:237,_RNCNvNvXsD_NtNtNtNtCs16bWprmmhjH_5oauth8adapters3web11controllers15user_controllerNtB9_32remove_role_from_user_controllerNtNtCsb9zwYTRy8hm_9actix_web7service18HttpServiceFactory8register32remove_role_from_user_controller0Bh_
FNDA:0,_RNCNvNtNtNtNtCskY3J53qhLT7_5oauth8adapters3web11controllers15user_controller13extract_token0Bb_
FNDA:0,_RNCNvNtNtNtNtCskY3J53qhLT7_5oauth8adapters3web11controllers15user_controller13extract_tokens_0Bb_
FNDA:0,_RNCNvNvXs4_NtNtNtNtCskY3J53qhLT7_5oauth8adapters3web11controllers15user_controllerNtB9_22create_user_controllerNtNtCsb9zwYTRy8hm_9actix_web7service18HttpServiceFactory8register22create_user_controller0Bh_
FNDA:0,_RNCNvNvXs9_NtNtNtNtCskY3J53qhLT7_5oauth8adapters3web11controllers15user_controllerNtB9_20get_users_controllerNtNtCsb9zwYTRy8hm_9actix_web7service18HttpServiceFactory8register20get_users_controller0Bh_
FNDA:0,_RNCNvNvXse_NtNtNtNtCskY3J53qhLT7_5oauth8adapters3web11controllers15user_controllerNtB9_19get_user_controllerNtNtCsb9zwYTRy8hm_9actix_web7service18HttpServiceFactory8register19get_user_controller0Bh_
FNDA:0,_RNCNvNvXsj_NtNtNtNtCskY3J53qhLT7_5oauth8adapters3web11controllers15user_controllerNtB9_22update_user_controllerNtNtCsb9zwYTRy8hm_9actix_web7service18HttpServiceFactory8register22update_user_controller0Bh_
FNDA:0,_RNCNvNvXso_NtNtNtNtCskY3J53qhLT7_5oauth8adapters3web11controllers15user_controllerNtB9_26update_password_controllerNtNtCsb9zwYTRy8hm_9actix_web7service18HttpServiceFactory8register26update_password_controller0Bh_
FNDA:0,_RNCNvNvXst_NtNtNtNtCskY3J53qhLT7_5oauth8adapters3web11controllers15user_controllerNtB9_22delete_user_controllerNtNtCsb9zwYTRy8hm_9actix_web7service18HttpServiceFactory8register22delete_user_controller0Bh_
FNDA:0,_RNCNvNvXsy_NtNtNtNtCskY3J53qhLT7_5oauth8adapters3web11controllers15user_controllerNtB9_27add_role_to_user_controllerNtNtCsb9zwYTRy8hm_9actix_web7service18HttpServiceFactory8register27add_role_to_user_controller0Bh_
FNDA:0,_RNCNvNvXsD_NtNtNtNtCskY3J53qhLT7_5oauth8adapters3web11controllers15user_controllerNtB9_32remove_role_from_user_controllerNtNtCsb9zwYTRy8hm_9actix_web7service18HttpServiceFactory8register32remove_role_from_user_controller0Bh_
FNDA:0,_RNvNtNtNtNtCskY3J53qhLT7_5oauth8adapters3web11controllers15user_controller13extract_token
FNDA:0,_RNvXNtNtNtNtCskY3J53qhLT7_5oauth8adapters3web11controllers15user_controllerNtB2_17PasswordUpdateReqNtNtCs7uGmPRfeiaR_6utoipa5___dev13ComposeSchema7compose
FNDA:0,_RNvXs_NtNtNtNtCskY3J53qhLT7_5oauth8adapters3web11controllers15user_controllerNtB4_17PasswordUpdateReqNtCs7uGmPRfeiaR_6utoipa8ToSchema4name
FNDA:0,_RNvXs_NtNtNtNtCskY3J53qhLT7_5oauth8adapters3web11controllers15user_controllerNtB4_17PasswordUpdateReqNtCs7uGmPRfeiaR_6utoipa8ToSchema7schemas
FNDA:0,_RNvXs0_NtNtNtNtCskY3J53qhLT7_5oauth8adapters3web11controllers15user_controllerNtB5_29___path_create_user_controllerNtNtCs7uGmPRfeiaR_6utoipa5___dev4Tags4tags
FNDA:0,_RNvXs1_NtNtNtNtCskY3J53qhLT7_5oauth8adapters3web11controllers15user_controllerNtB5_29___path_create_user_controllerNtCs7uGmPRfeiaR_6utoipa4Path4path
FNDA:0,_RNvXs1_NtNtNtNtCskY3J53qhLT7_5oauth8adapters3web11controllers15user_controllerNtB5_29___path_create_user_controllerNtCs7uGmPRfeiaR_6utoipa4Path7methods
FNDA:0,_RNvXs1_NtNtNtNtCskY3J53qhLT7_5oauth8adapters3web11controllers15user_controllerNtB5_29___path_create_user_controllerNtCs7uGmPRfeiaR_6utoipa4Path9operation
FNDA:0,_RNvXs2_NtNtNtNtCskY3J53qhLT7_5oauth8adapters3web11controllers15user_controllerNtB5_29___path_create_user_controllerNtNtCs7uGmPRfeiaR_6utoipa5___dev16SchemaReferences7schemas
FNDA:0,_RNvXs4_NtNtNtNtCskY3J53qhLT7_5oauth8adapters3web11controllers15user_controllerNtB5_22create_user_controllerNtNtCsb9zwYTRy8hm_9actix_web7service18HttpServiceFactory8register
FNDA:0,_RNvNvXs4_NtNtNtNtCskY3J53qhLT7_5oauth8adapters3web11controllers15user_controllerNtB7_22create_user_controllerNtNtCsb9zwYTRy8hm_9actix_web7service18HttpServiceFactory8register22create_user_controller
FNDA:0,_RNvXs5_NtNtNtNtCskY3J53qhLT7_5oauth8adapters3web11controllers15user_controllerNtB5_27___path_get_users_controllerNtNtCs7uGmPRfeiaR_6utoipa5___dev4Tags4tags
FNDA:0,_RNvXs6_NtNtNtNtCskY3J53qhLT7_5oauth8adapters3web11controllers15user_controllerNtB5_27___path_get_users_controllerNtCs7uGmPRfeiaR_6utoipa4Path4path
FNDA:0,_RNvXs6_NtNtNtNtCskY3J53qhLT7_5oauth8adapters3web11controllers15user_controllerNtB5_27___path_get_users_controllerNtCs7uGmPRfeiaR_6utoipa4Path7methods
FNDA:0,_RNvXs6_NtNtNtNtCskY3J53qhLT7_5oauth8adapters3web11controllers15user_controllerNtB5_27___path_get_users_controllerNtCs7uGmPRfeiaR_6utoipa4Path9operation
FNDA:0,_RNvXs7_NtNtNtNtCskY3J53qhLT7_5oauth8adapters3web11controllers15user_controllerNtB5_27___path_get_users_controllerNtNtCs7uGmPRfeiaR_6utoipa5___dev16SchemaReferences7schemas
FNDA:0,_RNvXs9_NtNtNtNtCskY3J53qhLT7_5oauth8adapters3web11controllers15user_controllerNtB5_20get_users_controllerNtNtCsb9zwYTRy8hm_9actix_web7service18HttpServiceFactory8register
FNDA:0,_RNvNvXs9_NtNtNtNtCskY3J53qhLT7_5oauth8adapters3web11controllers15user_controllerNtB7_20get_users_controllerNtNtCsb9zwYTRy8hm_9actix_web7service18HttpServiceFactory8register20get_users_controller
FNDA:0,_RNvXsa_NtNtNtNtCskY3J53qhLT7_5oauth8adapters3web11controllers15user_controllerNtB5_26___path_get_user_controllerNtNtCs7uGmPRfeiaR_6utoipa5___dev4Tags4tags
FNDA:0,_RNvXsb_NtNtNtNtCskY3J53qhLT7_5oauth8adapters3web11controllers15user_controllerNtB5_26___path_get_user_controllerNtCs7uGmPRfeiaR_6utoipa4Path4path
FNDA:0,_RNvXsb_NtNtNtNtCskY3J53qhLT7_5oauth8adapters3web11controllers15user_controllerNtB5_26___path_get_user_controllerNtCs7uGmPRfeiaR_6utoipa4Path7methods
FNDA:0,_RNvXsb_NtNtNtNtCskY3J53qhLT7_5oauth8adapters3web11controllers15user_controllerNtB5_26___path_get_user_controllerNtCs7uGmPRfeiaR_6utoipa4Path9operation
FNDA:0,_RNvXsc_NtNtNtNtCskY3J53qhLT7_5oauth8adapters3web11controllers15user_controllerNtB5_26___path_get_user_controllerNtNtCs7uGmPRfeiaR_6utoipa5___dev16SchemaReferences7schemas
FNDA:0,_RNvXse_NtNtNtNtCskY3J53qhLT7_5oauth8adapters3web11controllers15user_controllerNtB5_19get_user_controllerNtNtCsb9zwYTRy8hm_9actix_web7service18HttpServiceFactory8register
FNDA:0,_RNvNvXse_NtNtNtNtCskY3J53qhLT7_5oauth8adapters3web11controllers15user_controllerNtB7_19get_user_controllerNtNtCsb9zwYTRy8hm_9actix_web7service18HttpServiceFactory8register19get_user_controller
FNDA:0,_RNvXsf_NtNtNtNtCskY3J53qhLT7_5oauth8adapters3web11controllers15user_controllerNtB5_29___path_update_user_controllerNtNtCs7uGmPRfeiaR_6utoipa5___dev4Tags4tags
FNDA:0,_RNvXsg_NtNtNtNtCskY3J53qhLT7_5oauth8adapters3web11controllers15user_controllerNtB5_29___path_update_user_controllerNtCs7uGmPRfeiaR_6utoipa4Path4path
FNDA:0,_RNvXsg_NtNtNtNtCskY3J53qhLT7_5oauth8adapters3web11controllers15user_controllerNtB5_29___path_update_user_controllerNtCs7uGmPRfeiaR_6utoipa4Path7methods
FNDA:0,_RNvXsg_NtNtNtNtCskY3J53qhLT7_5oauth8adapters3web11controllers15user_controllerNtB5_29___path_update_user_controllerNtCs7uGmPRfeiaR_6utoipa4Path9operation
FNDA:0,_RNvXsh_NtNtNtNtCskY3J53qhLT7_5oauth8adapters3web11controllers15user_controllerNtB5_29___path_update_user_controllerNtNtCs7uGmPRfeiaR_6utoipa5___dev16SchemaReferences7schemas
FNDA:0,_RNvXsj_NtNtNtNtCskY3J53qhLT7_5oauth8adapters3web11controllers15user_controllerNtB5_22update_user_controllerNtNtCsb9zwYTRy8hm_9actix_web7service18HttpServiceFactory8register
FNDA:0,_RNvNvXsj_NtNtNtNtCskY3J53qhLT7_5oauth8adapters3web11controllers15user_controllerNtB7_22update_user_controllerNtNtCsb9zwYTRy8hm_9actix_web7service18HttpServiceFactory8register22update_user_controller
FNDA:0,_RNvXsk_NtNtNtNtCskY3J53qhLT7_5oauth8adapters3web11controllers15user_controllerNtB5_33___path_update_password_controllerNtNtCs7uGmPRfeiaR_6utoipa5___dev4Tags4tags
FNDA:0,_RNvXsl_NtNtNtNtCskY3J53qhLT7_5oauth8adapters3web11controllers15user_controllerNtB5_33___path_update_password_controllerNtCs7uGmPRfeiaR_6utoipa4Path4path
FNDA:0,_RNvXsl_NtNtNtNtCskY3J53qhLT7_5oauth8adapters3web11controllers15user_controllerNtB5_33___path_update_password_controllerNtCs7uGmPRfeiaR_6utoipa4Path7methods
FNDA:0,_RNvXsl_NtNtNtNtCskY3J53qhLT7_5oauth8adapters3web11controllers15user_controllerNtB5_33___path_update_password_controllerNtCs7uGmPRfeiaR_6utoipa4Path9operation
FNDA:0,_RNvXsm_NtNtNtNtCskY3J53qhLT7_5oauth8adapters3web11controllers15user_controllerNtB5_33___path_update_password_controllerNtNtCs7uGmPRfeiaR_6utoipa5___dev16SchemaReferences7schemas
FNDA:0,_RNvXso_NtNtNtNtCskY3J53qhLT7_5oauth8adapters3web11controllers15user_controllerNtB5_26update_password_controllerNtNtCsb9zwYTRy8hm_9actix_web7service18HttpServiceFactory8register
FNDA:0,_RNvNvXso_NtNtNtNtCskY3J53qhLT7_5oauth8adapters3web11controllers15user_controllerNtB7_26update_password_controllerNtNtCsb9zwYTRy8hm_9actix_web7service18HttpServiceFactory8register26update_password_controller
FNDA:0,_RNvXsp_NtNtNtNtCskY3J53qhLT7_5oauth8adapters3web11controllers15user_controllerNtB5_29___path_delete_user_controllerNtNtCs7uGmPRfeiaR_6utoipa5___dev4Tags4tags
FNDA:0,_RNvXsq_NtNtNtNtCskY3J53qhLT7_5oauth8adapters3web11controllers15user_controllerNtB5_29___path_delete_user_controllerNtCs7uGmPRfeiaR_6utoipa4Path4path
FNDA:0,_RNvXsq_NtNtNtNtCskY3J53qhLT7_5oauth8adapters3web11controllers15user_controllerNtB5_29___path_delete_user_controllerNtCs7uGmPRfeiaR_6utoipa4Path7methods
FNDA:0,_RNvXsq_NtNtNtNtCskY3J53qhLT7_5oauth8adapters3web11controllers15user_controllerNtB5_29___path_delete_user_controllerNtCs7uGmPRfeiaR_6utoipa4Path9operation
FNDA:0,_RNvXsr_NtNtNtNtCskY3J53qhLT7_5oauth8adapters3web11controllers15user_controllerNtB5_29___path_delete_user_controllerNtNtCs7uGmPRfeiaR_6utoipa5___dev16SchemaReferences7schemas
FNDA:0,_RNvXst_NtNtNtNtCskY3J53qhLT7_5oauth8adapters3web11controllers15user_controllerNtB5_22delete_user_controllerNtNtCsb9zwYTRy8hm_9actix_web7service18HttpServiceFactory8register
FNDA:0,_RNvNvXst_NtNtNtNtCskY3J53qhLT7_5oauth8adapters3web11controllers15user_controllerNtB7_22delete_user_controllerNtNtCsb9zwYTRy8hm_9actix_web7service18HttpServiceFactory8register22delete_user_controller
FNDA:0,_RNvXsu_NtNtNtNtCskY3J53qhLT7_5oauth8adapters3web11controllers15user_controllerNtB5_34___path_add_role_to_user_controllerNtNtCs7uGmPRfeiaR_6utoipa5___dev4Tags4tags
FNDA:0,_RNvXsv_NtNtNtNtCskY3J53qhLT7_5oauth8adapters3web11controllers15user_controllerNtB5_34___path_add_role_to_user_controllerNtCs7uGmPRfeiaR_6utoipa4Path4path
FNDA:0,_RNvXsv_NtNtNtNtCskY3J53qhLT7_5oauth8adapters3web11controllers15user_controllerNtB5_34___path_add_role_to_user_controllerNtCs7uGmPRfeiaR_6utoipa4Path7methods
FNDA:0,_RNvXsv_NtNtNtNtCskY3J53qhLT7_5oauth8adapters3web11controllers15user_controllerNtB5_34___path_add_role_to_user_controllerNtCs7uGmPRfeiaR_6utoipa4Path9operation
FNDA:0,_RNvXsw_NtNtNtNtCskY3J53qhLT7_5oauth8adapters3web11controllers15user_controllerNtB5_34___path_add_role_to_user_controllerNtNtCs7uGmPRfeiaR_6utoipa5___dev16SchemaReferences7schemas
FNDA:0,_RNvXsy_NtNtNtNtCskY3J53qhLT7_5oauth8adapters3web11controllers15user_controllerNtB5_27add_role_to_user_controllerNtNtCsb9zwYTRy8hm_9actix_web7service18HttpServiceFactory8register
FNDA:0,_RNvNvXsy_NtNtNtNtCskY3J53qhLT7_5oauth8adapters3web11controllers15user_controllerNtB7_27add_role_to_user_controllerNtNtCsb9zwYTRy8hm_9actix_web7service18HttpServiceFactory8register27add_role_to_user_controller
FNDA:0,_RNvXsz_NtNtNtNtCskY3J53qhLT7_5oauth8adapters3web11controllers15user_controllerNtB5_39___path_remove_role_from_user_controllerNtNtCs7uGmPRfeiaR_6utoipa5___dev4Tags4tags
FNDA:0,_RNvXsA_NtNtNtNtCskY3J53qhLT7_5oauth8adapters3web11controllers15user_controllerNtB5_39___path_remove_role_from_user_controllerNtCs7uGmPRfeiaR_6utoipa4Path4path
FNDA:0,_RNvXsA_NtNtNtNtCskY3J53qhLT7_5oauth8adapters3web11controllers15user_controllerNtB5_39___path_remove_role_from_user_controllerNtCs7uGmPRfeiaR_6utoipa4Path7methods
FNDA:0,_RNvXsA_NtNtNtNtCskY3J53qhLT7_5oauth8adapters3web11controllers15user_controllerNtB5_39___path_remove_role_from_user_controllerNtCs7uGmPRfeiaR_6utoipa4Path9operation
FNDA:0,_RNvXsB_NtNtNtNtCskY3J53qhLT7_5oauth8adapters3web11controllers15user_controllerNtB5_39___path_remove_role_from_user_controllerNtNtCs7uGmPRfeiaR_6utoipa5___dev16SchemaReferences7schemas
FNDA:0,_RNvXsD_NtNtNtNtCskY3J53qhLT7_5oauth8adapters3web11controllers15user_controllerNtB5_32remove_role_from_user_controllerNtNtCsb9zwYTRy8hm_9actix_web7service18HttpServiceFactory8register
FNDA:0,_RNvNvXsD_NtNtNtNtCskY3J53qhLT7_5oauth8adapters3web11controllers15user_controllerNtB7_32remove_role_from_user_controllerNtNtCsb9zwYTRy8hm_9actix_web7service18HttpServiceFactory8register32remove_role_from_user_controller
FNDA:0,_RNvXNtNtNtNtCs16bWprmmhjH_5oauth8adapters3web11controllers15user_controllerNtB2_17PasswordUpdateReqNtNtCs7uGmPRfeiaR_6utoipa5___dev13ComposeSchema7compose
FNDA:0,_RNvXs_NtNtNtNtCs16bWprmmhjH_5oauth8adapters3web11controllers15user_controllerNtB4_17PasswordUpdateReqNtCs7uGmPRfeiaR_6utoipa8ToSchema4name
FNDA:0,_RNvXs_NtNtNtNtCs16bWprmmhjH_5oauth8adapters3web11controllers15user_controllerNtB4_17PasswordUpdateReqNtCs7uGmPRfeiaR_6utoipa8ToSchema7schemas
FNDA:0,_RNvNtNtNtNtCs16bWprmmhjH_5oauth8adapters3web11controllers15user_controller13extract_token
FNDA:0,_RNCNvNtNtNtNtCs16bWprmmhjH_5oauth8adapters3web11controllers15user_controller13extract_token0Bb_
FNDA:0,_RNCNvNtNtNtNtCs16bWprmmhjH_5oauth8adapters3web11controllers15user_controller13extract_tokens_0Bb_
FNDA:0,_RNvXs0_NtNtNtNtCs16bWprmmhjH_5oauth8adapters3web11controllers15user_controllerNtB5_29___path_create_user_controllerNtNtCs7uGmPRfeiaR_6utoipa5___dev4Tags4tags
FNDA:0,_RNvXs1_NtNtNtNtCs16bWprmmhjH_5oauth8adapters3web11controllers15user_controllerNtB5_29___path_create_user_controllerNtCs7uGmPRfeiaR_6utoipa4Path4path
FNDA:0,_RNvXs1_NtNtNtNtCs16bWprmmhjH_5oauth8adapters3web11controllers15user_controllerNtB5_29___path_create_user_controllerNtCs7uGmPRfeiaR_6utoipa4Path7methods
FNDA:0,_RNvXs1_NtNtNtNtCs16bWprmmhjH_5oauth8adapters3web11controllers15user_controllerNtB5_29___path_create_user_controllerNtCs7uGmPRfeiaR_6utoipa4Path9operation
FNDA:0,_RNvXs2_NtNtNtNtCs16bWprmmhjH_5oauth8adapters3web11controllers15user_controllerNtB5_29___path_create_user_controllerNtNtCs7uGmPRfeiaR_6utoipa5___dev16SchemaReferences7schemas
FNDA:0,_RNvXs4_NtNtNtNtCs16bWprmmhjH_5oauth8adapters3web11controllers15user_controllerNtB5_22create_user_controllerNtNtCsb9zwYTRy8hm_9actix_web7service18HttpServiceFactory8register
FNDA:0,_RNvNvXs4_NtNtNtNtCs16bWprmmhjH_5oauth8adapters3web11controllers15user_controllerNtB7_22create_user_controllerNtNtCsb9zwYTRy8hm_9actix_web7service18HttpServiceFactory8register22create_user_controller
FNDA:0,_RNCNvNvXs4_NtNtNtNtCs16bWprmmhjH_5oauth8adapters3web11controllers15user_controllerNtB9_22create_user_controllerNtNtCsb9zwYTRy8hm_9actix_web7service18HttpServiceFactory8register22create_user_controller0Bh_
FNDA:0,_RNvXs5_NtNtNtNtCs16bWprmmhjH_5oauth8adapters3web11controllers15user_controllerNtB5_27___path_get_users_controllerNtNtCs7uGmPRfeiaR_6utoipa5___dev4Tags4tags
FNDA:0,_RNvXs6_NtNtNtNtCs16bWprmmhjH_5oauth8adapters3web11controllers15user_controllerNtB5_27___path_get_users_controllerNtCs7uGmPRfeiaR_6utoipa4Path4path
FNDA:0,_RNvXs6_NtNtNtNtCs16bWprmmhjH_5oauth8adapters3web11controllers15user_controllerNtB5_27___path_get_users_controllerNtCs7uGmPRfeiaR_6utoipa4Path7methods
FNDA:0,_RNvXs6_NtNtNtNtCs16bWprmmhjH_5oauth8adapters3web11controllers15user_controllerNtB5_27___path_get_users_controllerNtCs7uGmPRfeiaR_6utoipa4Path9operation
FNDA:0,_RNvXs7_NtNtNtNtCs16bWprmmhjH_5oauth8adapters3web11controllers15user_controllerNtB5_27___path_get_users_controllerNtNtCs7uGmPRfeiaR_6utoipa5___dev16SchemaReferences7schemas
FNDA:0,_RNvXs9_NtNtNtNtCs16bWprmmhjH_5oauth8adapters3web11controllers15user_controllerNtB5_20get_users_controllerNtNtCsb9zwYTRy8hm_9actix_web7service18HttpServiceFactory8register
FNDA:0,_RNvNvXs9_NtNtNtNtCs16bWprmmhjH_5oauth8adapters3web11controllers15user_controllerNtB7_20get_users_controllerNtNtCsb9zwYTRy8hm_9actix_web7service18HttpServiceFactory8register20get_users_controller
FNDA:0,_RNCNvNvXs9_NtNtNtNtCs16bWprmmhjH_5oauth8adapters3web11controllers15user_controllerNtB9_20get_users_controllerNtNtCsb9zwYTRy8hm_9actix_web7service18HttpServiceFactory8register20get_users_controller0Bh_
FNDA:0,_RNvXsa_NtNtNtNtCs16bWprmmhjH_5oauth8adapters3web11controllers15user_controllerNtB5_26___path_get_user_controllerNtNtCs7uGmPRfeiaR_6utoipa5___dev4Tags4tags
FNDA:0,_RNvXsb_NtNtNtNtCs16bWprmmhjH_5oauth8adapters3web11controllers15user_controllerNtB5_26___path_get_user_controllerNtCs7uGmPRfeiaR_6utoipa4Path4path
FNDA:0,_RNvXsb_NtNtNtNtCs16bWprmmhjH_5oauth8adapters3web11controllers15user_controllerNtB5_26___path_get_user_controllerNtCs7uGmPRfeiaR_6utoipa4Path7methods
FNDA:0,_RNvXsb_NtNtNtNtCs16bWprmmhjH_5oauth8adapters3web11controllers15user_controllerNtB5_26___path_get_user_controllerNtCs7uGmPRfeiaR_6utoipa4Path9operation
FNDA:0,_RNvXsc_NtNtNtNtCs16bWprmmhjH_5oauth8adapters3web11controllers15user_controllerNtB5_26___path_get_user_controllerNtNtCs7uGmPRfeiaR_6utoipa5___dev16SchemaReferences7schemas
FNDA:0,_RNvXse_NtNtNtNtCs16bWprmmhjH_5oauth8adapters3web11controllers15user_controllerNtB5_19get_user_controllerNtNtCsb9zwYTRy8hm_9actix_web7service18HttpServiceFactory8register
FNDA:0,_RNvNvXse_NtNtNtNtCs16bWprmmhjH_5oauth8adapters3web11controllers15user_controllerNtB7_19get_user_controllerNtNtCsb9zwYTRy8hm_9actix_web7service18HttpServiceFactory8register19get_user_controller
FNDA:0,_RNCNvNvXse_NtNtNtNtCs16bWprmmhjH_5oauth8adapters3web11controllers15user_controllerNtB9_19get_user_controllerNtNtCsb9zwYTRy8hm_9actix_web7service18HttpServiceFactory8register19get_user_controller0Bh_
FNDA:0,_RNvXsf_NtNtNtNtCs16bWprmmhjH_5oauth8adapters3web11controllers15user_controllerNtB5_29___path_update_user_controllerNtNtCs7uGmPRfeiaR_6utoipa5___dev4Tags4tags
FNDA:0,_RNvXsg_NtNtNtNtCs16bWprmmhjH_5oauth8adapters3web11controllers15user_controllerNtB5_29___path_update_user_controllerNtCs7uGmPRfeiaR_6utoipa4Path4path
FNDA:0,_RNvXsg_NtNtNtNtCs16bWprmmhjH_5oauth8adapters3web11controllers15user_controllerNtB5_29___path_update_user_controllerNtCs7uGmPRfeiaR_6utoipa4Path7methods
FNDA:0,_RNvXsg_NtNtNtNtCs16bWprmmhjH_5oauth8adapters3web11controllers15user_controllerNtB5_29___path_update_user_controllerNtCs7uGmPRfeiaR_6utoipa4Path9operation
FNDA:0,_RNvXsh_NtNtNtNtCs16bWprmmhjH_5oauth8adapters3web11controllers15user_controllerNtB5_29___path_update_user_controllerNtNtCs7uGmPRfeiaR_6utoipa5___dev16SchemaReferences7schemas
FNDA:0,_RNvXsj_NtNtNtNtCs16bWprmmhjH_5oauth8adapters3web11controllers15user_controllerNtB5_22update_user_controllerNtNtCsb9zwYTRy8hm_9actix_web7service18HttpServiceFactory8register
FNDA:0,_RNvNvXsj_NtNtNtNtCs16bWprmmhjH_5oauth8adapters3web11controllers15user_controllerNtB7_22update_user_controllerNtNtCsb9zwYTRy8hm_9actix_web7service18HttpServiceFactory8register22update_user_controller
FNDA:0,_RNCNvNvXsj_NtNtNtNtCs16bWprmmhjH_5oauth8adapters3web11controllers15user_controllerNtB9_22update_user_controllerNtNtCsb9zwYTRy8hm_9actix_web7service18HttpServiceFactory8register22update_user_controller0Bh_
FNDA:0,_RNvXsk_NtNtNtNtCs16bWprmmhjH_5oauth8adapters3web11controllers15user_controllerNtB5_33___path_update_password_controllerNtNtCs7uGmPRfeiaR_6utoipa5___dev4Tags4tags
FNDA:0,_RNvXsl_NtNtNtNtCs16bWprmmhjH_5oauth8adapters3web11controllers15user_controllerNtB5_33___path_update_password_controllerNtCs7uGmPRfeiaR_6utoipa4Path4path
FNDA:0,_RNvXsl_NtNtNtNtCs16bWprmmhjH_5oauth8adapters3web11controllers15user_controllerNtB5_33___path_update_password_controllerNtCs7uGmPRfeiaR_6utoipa4Path7methods
FNDA:0,_RNvXsl_NtNtNtNtCs16bWprmmhjH_5oauth8adapters3web11controllers15user_controllerNtB5_33___path_update_password_controllerNtCs7uGmPRfeiaR_6utoipa4Path9operation
FNDA:0,_RNvXsm_NtNtNtNtCs16bWprmmhjH_5oauth8adapters3web11controllers15user_controllerNtB5_33___path_update_password_controllerNtNtCs7uGmPRfeiaR_6utoipa5___dev16SchemaReferences7schemas
FNDA:0,_RNvXso_NtNtNtNtCs16bWprmmhjH_5oauth8adapters3web11controllers15user_controllerNtB5_26update_password_controllerNtNtCsb9zwYTRy8hm_9actix_web7service18HttpServiceFactory8register
FNDA:0,_RNvNvXso_NtNtNtNtCs16bWprmmhjH_5oauth8adapters3web11controllers15user_controllerNtB7_26update_password_controllerNtNtCsb9zwYTRy8hm_9actix_web7service18HttpServiceFactory8register26update_password_controller
FNDA:0,_RNCNvNvXso_NtNtNtNtCs16bWprmmhjH_5oauth8adapters3web11controllers15user_controllerNtB9_26update_password_controllerNtNtCsb9zwYTRy8hm_9actix_web7service18HttpServiceFactory8register26update_password_controller0Bh_
FNDA:0,_RNvXsp_NtNtNtNtCs16bWprmmhjH_5oauth8adapters3web11controllers15user_controllerNtB5_29___path_delete_user_controllerNtNtCs7uGmPRfeiaR_6utoipa5___dev4Tags4tags
FNDA:0,_RNvXsq_NtNtNtNtCs16bWprmmhjH_5oauth8adapters3web11controllers15user_controllerNtB5_29___path_delete_user_controllerNtCs7uGmPRfeiaR_6utoipa4Path4path
FNDA:0,_RNvXsq_NtNtNtNtCs16bWprmmhjH_5oauth8adapters3web11controllers15user_controllerNtB5_29___path_delete_user_controllerNtCs7uGmPRfeiaR_6utoipa4Path7methods
FNDA:0,_RNvXsq_NtNtNtNtCs16bWprmmhjH_5oauth8adapters3web11controllers15user_controllerNtB5_29___path_delete_user_controllerNtCs7uGmPRfeiaR_6utoipa4Path9operation
FNDA:0,_RNvXsr_NtNtNtNtCs16bWprmmhjH_5oauth8adapters3web11controllers15user_controllerNtB5_29___path_delete_user_controllerNtNtCs7uGmPRfeiaR_6utoipa5___dev16SchemaReferences7schemas
FNDA:0,_RNvXst_NtNtNtNtCs16bWprmmhjH_5oauth8adapters3web11controllers15user_controllerNtB5_22delete_user_controllerNtNtCsb9zwYTRy8hm_9actix_web7service18HttpServiceFactory8register
FNDA:0,_RNvNvXst_NtNtNtNtCs16bWprmmhjH_5oauth8adapters3web11controllers15user_controllerNtB7_22delete_user_controllerNtNtCsb9zwYTRy8hm_9actix_web7service18HttpServiceFactory8register22delete_user_controller
FNDA:0,_RNCNvNvXst_NtNtNtNtCs16bWprmmhjH_5oauth8adapters3web11controllers15user_controllerNtB9_22delete_user_controllerNtNtCsb9zwYTRy8hm_9actix_web7service18HttpServiceFactory8register22delete_user_controller0Bh_
FNDA:0,_RNvXsu_NtNtNtNtCs16bWprmmhjH_5oauth8adapters3web11controllers15user_controllerNtB5_34___path_add_role_to_user_controllerNtNtCs7uGmPRfeiaR_6utoipa5___dev4Tags4tags
FNDA:0,_RNvXsv_NtNtNtNtCs16bWprmmhjH_5oauth8adapters3web11controllers15user_controllerNtB5_34___path_add_role_to_user_controllerNtCs7uGmPRfeiaR_6utoipa4Path4path
FNDA:0,_RNvXsv_NtNtNtNtCs16bWprmmhjH_5oauth8adapters3web11controllers15user_controllerNtB5_34___path_add_role_to_user_controllerNtCs7uGmPRfeiaR_6utoipa4Path7methods
FNDA:0,_RNvXsv_NtNtNtNtCs16bWprmmhjH_5oauth8adapters3web11controllers15user_controllerNtB5_34___path_add_role_to_user_controllerNtCs7uGmPRfeiaR_6utoipa4Path9operation
FNDA:0,_RNvXsw_NtNtNtNtCs16bWprmmhjH_5oauth8adapters3web11controllers15user_controllerNtB5_34___path_add_role_to_user_controllerNtNtCs7uGmPRfeiaR_6utoipa5___dev16SchemaReferences7schemas
FNDA:0,_RNvXsy_NtNtNtNtCs16bWprmmhjH_5oauth8adapters3web11controllers15user_controllerNtB5_27add_role_to_user_controllerNtNtCsb9zwYTRy8hm_9actix_web7service18HttpServiceFactory8register
FNDA:0,_RNvNvXsy_NtNtNtNtCs16bWprmmhjH_5oauth8adapters3web11controllers15user_controllerNtB7_27add_role_to_user_controllerNtNtCsb9zwYTRy8hm_9actix_web7service18HttpServiceFactory8register27add_role_to_user_controller
FNDA:0,_RNCNvNvXsy_NtNtNtNtCs16bWprmmhjH_5oauth8adapters3web11controllers15user_controllerNtB9_27add_role_to_user_controllerNtNtCsb9zwYTRy8hm_9actix_web7service18HttpServiceFactory8register27add_role_to_user_controller0Bh_
FNDA:0,_RNvXsz_NtNtNtNtCs16bWprmmhjH_5oauth8adapters3web11controllers15user_controllerNtB5_39___path_remove_role_from_user_controllerNtNtCs7uGmPRfeiaR_6utoipa5___dev4Tags4tags
FNDA:0,_RNvXsA_NtNtNtNtCs16bWprmmhjH_5oauth8adapters3web11controllers15user_controllerNtB5_39___path_remove_role_from_user_controllerNtCs7uGmPRfeiaR_6utoipa4Path4path
FNDA:0,_RNvXsA_NtNtNtNtCs16bWprmmhjH_5oauth8adapters3web11controllers15user_controllerNtB5_39___path_remove_role_from_user_controllerNtCs7uGmPRfeiaR_6utoipa4Path7methods
FNDA:0,_RNvXsA_NtNtNtNtCs16bWprmmhjH_5oauth8adapters3web11controllers15user_controllerNtB5_39___path_remove_role_from_user_controllerNtCs7uGmPRfeiaR_6utoipa4Path9operation
FNDA:0,_RNvXsB_NtNtNtNtCs16bWprmmhjH_5oauth8adapters3web11controllers15user_controllerNtB5_39___path_remove_role_from_user_controllerNtNtCs7uGmPRfeiaR_6utoipa5___dev16SchemaReferences7schemas
FNDA:0,_RNvXsD_NtNtNtNtCs16bWprmmhjH_5oauth8adapters3web11controllers15user_controllerNtB5_32remove_role_from_user_controllerNtNtCsb9zwYTRy8hm_9actix_web7service18HttpServiceFactory8register
FNDA:0,_RNvNvXsD_NtNtNtNtCs16bWprmmhjH_5oauth8adapters3web11controllers15user_controllerNtB7_32remove_role_from_user_controllerNtNtCsb9zwYTRy8hm_9actix_web7service18HttpServiceFactory8register32remove_role_from_user_controller
FNDA:0,_RNCNvNvXsD_NtNtNtNtCs16bWprmmhjH_5oauth8adapters3web11controllers15user_controllerNtB9_32remove_role_from_user_controllerNtNtCsb9zwYTRy8hm_9actix_web7service18HttpServiceFactory8register32remove_role_from_user_controller0Bh_
FNF:44
FNH:0
DA:16,0
DA:21,0
DA:22,0
DA:23,0
DA:24,0
DA:25,0
DA:26,0
DA:27,0
DA:30,0
DA:31,0
DA:32,0
DA:33,0
DA:34,0
DA:35,0
DA:36,0
DA:37,0
DA:38,0
DA:39,0
DA:40,0
DA:41,0
DA:42,0
DA:43,0
DA:44,0
DA:45,0
DA:46,0
DA:47,0
DA:48,0
DA:49,0
DA:50,0
DA:51,0
DA:52,0
DA:54,0
DA:55,0
DA:56,0
DA:57,0
DA:58,0
DA:59,0
DA:60,0
DA:61,0
DA:62,0
DA:63,0
DA:64,0
DA:65,0
DA:66,0
DA:67,0
DA:68,0
DA:69,0
DA:70,0
DA:72,0
DA:73,0
DA:74,0
DA:75,0
DA:76,0
DA:77,0
DA:78,0
DA:79,0
DA:80,0
DA:81,0
DA:82,0
DA:83,0
DA:84,0
DA:85,0
DA:86,0
DA:87,0
DA:88,0
DA:89,0
DA:90,0
DA:91,0
DA:92,0
DA:93,0
DA:95,0
DA:96,0
DA:97,0
DA:98,0
DA:99,0
DA:100,0
DA:101,0
DA:102,0
DA:103,0
DA:104,0
DA:105,0
DA:106,0
DA:107,0
DA:108,0
DA:109,0
DA:110,0
DA:111,0
DA:112,0
DA:113,0
DA:114,0
DA:115,0
DA:116,0
DA:117,0
DA:118,0
DA:119,0
DA:120,0
DA:121,0
DA:122,0
DA:123,0
DA:124,0
DA:125,0
DA:126,0
DA:129,0
DA:130,0
DA:131,0
DA:132,0
DA:133,0
DA:134,0
DA:135,0
DA:136,0
DA:137,0
DA:138,0
DA:139,0
DA:140,0
DA:141,0
DA:142,0
DA:143,0
DA:144,0
DA:145,0
DA:146,0
DA:147,0
DA:148,0
DA:149,0
DA:150,0
DA:151,0
DA:152,0
DA:153,0
DA:154,0
DA:155,0
DA:156,0
DA:157,0
DA:158,0
DA:159,0
DA:160,0
DA:162,0
DA:163,0
DA:164,0
DA:165,0
DA:166,0
DA:167,0
DA:168,0
DA:169,0
DA:170,0
DA:171,0
DA:172,0
DA:173,0
DA:174,0
DA:175,0
DA:176,0
DA:177,0
DA:178,0
DA:179,0
DA:180,0
DA:181,0
DA:182,0
DA:183,0
DA:185,0
DA:186,0
DA:187,0
DA:188,0
DA:189,0
DA:190,0
DA:191,0
DA:192,0
DA:193,0
DA:194,0
DA:195,0
DA:196,0
DA:197,0
DA:198,0
DA:199,0
DA:200,0
DA:201,0
DA:202,0
DA:203,0
DA:204,0
DA:205,0
DA:206,0
DA:207,0
DA:208,0
DA:209,0
DA:210,0
DA:211,0
DA:212,0
DA:213,0
DA:214,0
DA:215,0
DA:216,0
DA:218,0
DA:219,0
DA:220,0
DA:221,0
DA:222,0
DA:223,0
DA:224,0
DA:225,0
DA:226,0
DA:227,0
DA:228,0
DA:229,0
DA:230,0
DA:231,0
DA:232,0
DA:233,0
DA:234,0
DA:235,0
DA:236,0
DA:237,0
DA:238,0
DA:239,0
DA:240,0
DA:241,0
DA:242,0
DA:243,0
BRF:0
BRH:0
LF:232
LH:0
end_of_record
SF:/workspace/base/backend/oauth/src/core/dtos/req/assign_role_req.rs
FN:3,_RNvXNtNtNtNtCskY3J53qhLT7_5oauth4core4dtos3req15assign_role_reqNtB2_13AssignRoleReqNtNtCs7uGmPRfeiaR_6utoipa5___dev13ComposeSchema7compose
FN:3,_RNvXs_NtNtNtNtCskY3J53qhLT7_5oauth4core4dtos3req15assign_role_reqNtB4_13AssignRoleReqNtCs7uGmPRfeiaR_6utoipa8ToSchema4name
FN:3,_RNvXs_NtNtNtNtCskY3J53qhLT7_5oauth4core4dtos3req15assign_role_reqNtB4_13AssignRoleReqNtCs7uGmPRfeiaR_6utoipa8ToSchema7schemas
FN:3,_RNvXNtNtNtNtCs16bWprmmhjH_5oauth4core4dtos3req15assign_role_reqNtB2_13AssignRoleReqNtNtCs7uGmPRfeiaR_6utoipa5___dev13ComposeSchema7compose
FN:3,_RNvXs_NtNtNtNtCs16bWprmmhjH_5oauth4core4dtos3req15assign_role_reqNtB4_13AssignRoleReqNtCs7uGmPRfeiaR_6utoipa8ToSchema4name
FN:3,_RNvXs_NtNtNtNtCs16bWprmmhjH_5oauth4core4dtos3req15assign_role_reqNtB4_13AssignRoleReqNtCs7uGmPRfeiaR_6utoipa8ToSchema7schemas
FNDA:0,_RNvXNtNtNtNtCskY3J53qhLT7_5oauth4core4dtos3req15assign_role_reqNtB2_13AssignRoleReqNtNtCs7uGmPRfeiaR_6utoipa5___dev13ComposeSchema7compose
FNDA:0,_RNvXs_NtNtNtNtCskY3J53qhLT7_5oauth4core4dtos3req15assign_role_reqNtB4_13AssignRoleReqNtCs7uGmPRfeiaR_6utoipa8ToSchema4name
FNDA:0,_RNvXs_NtNtNtNtCskY3J53qhLT7_5oauth4core4dtos3req15assign_role_reqNtB4_13AssignRoleReqNtCs7uGmPRfeiaR_6utoipa8ToSchema7schemas
FNDA:0,_RNvXNtNtNtNtCs16bWprmmhjH_5oauth4core4dtos3req15assign_role_reqNtB2_13AssignRoleReqNtNtCs7uGmPRfeiaR_6utoipa5___dev13ComposeSchema7compose
FNDA:0,_RNvXs_NtNtNtNtCs16bWprmmhjH_5oauth4core4dtos3req15assign_role_reqNtB4_13AssignRoleReqNtCs7uGmPRfeiaR_6utoipa8ToSchema4name
FNDA:0,_RNvXs_NtNtNtNtCs16bWprmmhjH_5oauth4core4dtos3req15assign_role_reqNtB4_13AssignRoleReqNtCs7uGmPRfeiaR_6utoipa8ToSchema7schemas
FNF:1
FNH:0
DA:3,0
BRF:0
BRH:0
LF:1
LH:0
end_of_record
SF:/workspace/base/backend/oauth/src/core/dtos/req/create_role_req.rs
FN:4,_RNvXs_NtNtNtNtCskY3J53qhLT7_5oauth4core4dtos3req15create_role_reqNtB4_13CreateRoleReqNtNtCs7uGmPRfeiaR_6utoipa5___dev13ComposeSchema7compose
FN:4,_RNvXs0_NtNtNtNtCskY3J53qhLT7_5oauth4core4dtos3req15create_role_reqNtB5_13CreateRoleReqNtCs7uGmPRfeiaR_6utoipa8ToSchema4name
FN:4,_RNvXs0_NtNtNtNtCskY3J53qhLT7_5oauth4core4dtos3req15create_role_reqNtB5_13CreateRoleReqNtCs7uGmPRfeiaR_6utoipa8ToSchema7schemas
FN:4,_RNvXs_NtNtNtNtCs16bWprmmhjH_5oauth4core4dtos3req15create_role_reqNtB4_13CreateRoleReqNtNtCs7uGmPRfeiaR_6utoipa5___dev13ComposeSchema7compose
FN:4,_RNvXs0_NtNtNtNtCs16bWprmmhjH_5oauth4core4dtos3req15create_role_reqNtB5_13CreateRoleReqNtCs7uGmPRfeiaR_6utoipa8ToSchema4name
FN:4,_RNvXs0_NtNtNtNtCs16bWprmmhjH_5oauth4core4dtos3req15create_role_reqNtB5_13CreateRoleReqNtCs7uGmPRfeiaR_6utoipa8ToSchema7schemas
FNDA:0,_RNvXs_NtNtNtNtCskY3J53qhLT7_5oauth4core4dtos3req15create_role_reqNtB4_13CreateRoleReqNtNtCs7uGmPRfeiaR_6utoipa5___dev13ComposeSchema7compose
FNDA:0,_RNvXs0_NtNtNtNtCskY3J53qhLT7_5oauth4core4dtos3req15create_role_reqNtB5_13CreateRoleReqNtCs7uGmPRfeiaR_6utoipa8ToSchema4name
FNDA:0,_RNvXs0_NtNtNtNtCskY3J53qhLT7_5oauth4core4dtos3req15create_role_reqNtB5_13CreateRoleReqNtCs7uGmPRfeiaR_6utoipa8ToSchema7schemas
FNDA:0,_RNvXs_NtNtNtNtCs16bWprmmhjH_5oauth4core4dtos3req15create_role_reqNtB4_13CreateRoleReqNtNtCs7uGmPRfeiaR_6utoipa5___dev13ComposeSchema7compose
FNDA:0,_RNvXs0_NtNtNtNtCs16bWprmmhjH_5oauth4core4dtos3req15create_role_reqNtB5_13CreateRoleReqNtCs7uGmPRfeiaR_6utoipa8ToSchema4name
FNDA:0,_RNvXs0_NtNtNtNtCs16bWprmmhjH_5oauth4core4dtos3req15create_role_reqNtB5_13CreateRoleReqNtCs7uGmPRfeiaR_6utoipa8ToSchema7schemas
FNF:1
FNH:0
DA:4,0
BRF:0
BRH:0
LF:1
LH:0
end_of_record
SF:/workspace/base/backend/oauth/src/core/dtos/req/create_user_req.rs
FN:4,_RNvXs_NtNtNtNtCskY3J53qhLT7_5oauth4core4dtos3req15create_user_reqNtB4_13CreateUserReqNtNtCs7uGmPRfeiaR_6utoipa5___dev13ComposeSchema7compose
FN:4,_RNvXs0_NtNtNtNtCskY3J53qhLT7_5oauth4core4dtos3req15create_user_reqNtB5_13CreateUserReqNtCs7uGmPRfeiaR_6utoipa8ToSchema4name
FN:4,_RNvXs0_NtNtNtNtCskY3J53qhLT7_5oauth4core4dtos3req15create_user_reqNtB5_13CreateUserReqNtCs7uGmPRfeiaR_6utoipa8ToSchema7schemas
FN:4,_RNvXs_NtNtNtNtCs16bWprmmhjH_5oauth4core4dtos3req15create_user_reqNtB4_13CreateUserReqNtNtCs7uGmPRfeiaR_6utoipa5___dev13ComposeSchema7compose
FN:4,_RNvXs0_NtNtNtNtCs16bWprmmhjH_5oauth4core4dtos3req15create_user_reqNtB5_13CreateUserReqNtCs7uGmPRfeiaR_6utoipa8ToSchema4name
FN:4,_RNvXs0_NtNtNtNtCs16bWprmmhjH_5oauth4core4dtos3req15create_user_reqNtB5_13CreateUserReqNtCs7uGmPRfeiaR_6utoipa8ToSchema7schemas
FNDA:0,_RNvXs_NtNtNtNtCskY3J53qhLT7_5oauth4core4dtos3req15create_user_reqNtB4_13CreateUserReqNtNtCs7uGmPRfeiaR_6utoipa5___dev13ComposeSchema7compose
FNDA:0,_RNvXs0_NtNtNtNtCskY3J53qhLT7_5oauth4core4dtos3req15create_user_reqNtB5_13CreateUserReqNtCs7uGmPRfeiaR_6utoipa8ToSchema4name
FNDA:0,_RNvXs0_NtNtNtNtCskY3J53qhLT7_5oauth4core4dtos3req15create_user_reqNtB5_13CreateUserReqNtCs7uGmPRfeiaR_6utoipa8ToSchema7schemas
FNDA:0,_RNvXs_NtNtNtNtCs16bWprmmhjH_5oauth4core4dtos3req15create_user_reqNtB4_13CreateUserReqNtNtCs7uGmPRfeiaR_6utoipa5___dev13ComposeSchema7compose
FNDA:0,_RNvXs0_NtNtNtNtCs16bWprmmhjH_5oauth4core4dtos3req15create_user_reqNtB5_13CreateUserReqNtCs7uGmPRfeiaR_6utoipa8ToSchema4name
FNDA:0,_RNvXs0_NtNtNtNtCs16bWprmmhjH_5oauth4core4dtos3req15create_user_reqNtB5_13CreateUserReqNtCs7uGmPRfeiaR_6utoipa8ToSchema7schemas
FNF:1
FNH:0
DA:4,0
BRF:0
BRH:0
LF:1
LH:0
end_of_record
SF:/workspace/base/backend/oauth/src/core/dtos/req/login_req.rs
FN:4,_RNvXs_NtNtNtNtCskY3J53qhLT7_5oauth4core4dtos3req9login_reqNtB4_8LoginReqNtNtCs7uGmPRfeiaR_6utoipa5___dev13ComposeSchema7compose
FN:4,_RNvXs0_NtNtNtNtCskY3J53qhLT7_5oauth4core4dtos3req9login_reqNtB5_8LoginReqNtCs7uGmPRfeiaR_6utoipa8ToSchema4name
FN:4,_RNvXs0_NtNtNtNtCskY3J53qhLT7_5oauth4core4dtos3req9login_reqNtB5_8LoginReqNtCs7uGmPRfeiaR_6utoipa8ToSchema7schemas
FN:10,_RNvXs2_NtNtNtNtCskY3J53qhLT7_5oauth4core4dtos3req9login_reqNtB5_16LoginReqKeycloakNtNtCs7uGmPRfeiaR_6utoipa5___dev13ComposeSchema7compose
FN:10,_RNvXs3_NtNtNtNtCskY3J53qhLT7_5oauth4core4dtos3req9login_reqNtB5_16LoginReqKeycloakNtCs7uGmPRfeiaR_6utoipa8ToSchema4name
FN:10,_RNvXs3_NtNtNtNtCskY3J53qhLT7_5oauth4core4dtos3req9login_reqNtB5_16LoginReqKeycloakNtCs7uGmPRfeiaR_6utoipa8ToSchema7schemas
FN:4,_RNvXs_NtNtNtNtCs16bWprmmhjH_5oauth4core4dtos3req9login_reqNtB4_8LoginReqNtNtCs7uGmPRfeiaR_6utoipa5___dev13ComposeSchema7compose
FN:4,_RNvXs0_NtNtNtNtCs16bWprmmhjH_5oauth4core4dtos3req9login_reqNtB5_8LoginReqNtCs7uGmPRfeiaR_6utoipa8ToSchema4name
FN:4,_RNvXs0_NtNtNtNtCs16bWprmmhjH_5oauth4core4dtos3req9login_reqNtB5_8LoginReqNtCs7uGmPRfeiaR_6utoipa8ToSchema7schemas
FN:10,_RNvXs2_NtNtNtNtCs16bWprmmhjH_5oauth4core4dtos3req9login_reqNtB5_16LoginReqKeycloakNtNtCs7uGmPRfeiaR_6utoipa5___dev13ComposeSchema7compose
FN:10,_RNvXs3_NtNtNtNtCs16bWprmmhjH_5oauth4core4dtos3req9login_reqNtB5_16LoginReqKeycloakNtCs7uGmPRfeiaR_6utoipa8ToSchema4name
FN:10,_RNvXs3_NtNtNtNtCs16bWprmmhjH_5oauth4core4dtos3req9login_reqNtB5_16LoginReqKeycloakNtCs7uGmPRfeiaR_6utoipa8ToSchema7schemas
FNDA:0,_RNvXs_NtNtNtNtCskY3J53qhLT7_5oauth4core4dtos3req9login_reqNtB4_8LoginReqNtNtCs7uGmPRfeiaR_6utoipa5___dev13ComposeSchema7compose
FNDA:0,_RNvXs0_NtNtNtNtCskY3J53qhLT7_5oauth4core4dtos3req9login_reqNtB5_8LoginReqNtCs7uGmPRfeiaR_6utoipa8ToSchema4name
FNDA:0,_RNvXs0_NtNtNtNtCskY3J53qhLT7_5oauth4core4dtos3req9login_reqNtB5_8LoginReqNtCs7uGmPRfeiaR_6utoipa8ToSchema7schemas
FNDA:0,_RNvXs2_NtNtNtNtCskY3J53qhLT7_5oauth4core4dtos3req9login_reqNtB5_16LoginReqKeycloakNtNtCs7uGmPRfeiaR_6utoipa5___dev13ComposeSchema7compose
FNDA:0,_RNvXs3_NtNtNtNtCskY3J53qhLT7_5oauth4core4dtos3req9login_reqNtB5_16LoginReqKeycloakNtCs7uGmPRfeiaR_6utoipa8ToSchema4name
FNDA:0,_RNvXs3_NtNtNtNtCskY3J53qhLT7_5oauth4core4dtos3req9login_reqNtB5_16LoginReqKeycloakNtCs7uGmPRfeiaR_6utoipa8ToSchema7schemas
FNDA:0,_RNvXs_NtNtNtNtCs16bWprmmhjH_5oauth4core4dtos3req9login_reqNtB4_8LoginReqNtNtCs7uGmPRfeiaR_6utoipa5___dev13ComposeSchema7compose
FNDA:0,_RNvXs0_NtNtNtNtCs16bWprmmhjH_5oauth4core4dtos3req9login_reqNtB5_8LoginReqNtCs7uGmPRfeiaR_6utoipa8ToSchema4name
FNDA:0,_RNvXs0_NtNtNtNtCs16bWprmmhjH_5oauth4core4dtos3req9login_reqNtB5_8LoginReqNtCs7uGmPRfeiaR_6utoipa8ToSchema7schemas
FNDA:0,_RNvXs2_NtNtNtNtCs16bWprmmhjH_5oauth4core4dtos3req9login_reqNtB5_16LoginReqKeycloakNtNtCs7uGmPRfeiaR_6utoipa5___dev13ComposeSchema7compose
FNDA:0,_RNvXs3_NtNtNtNtCs16bWprmmhjH_5oauth4core4dtos3req9login_reqNtB5_16LoginReqKeycloakNtCs7uGmPRfeiaR_6utoipa8ToSchema4name
FNDA:0,_RNvXs3_NtNtNtNtCs16bWprmmhjH_5oauth4core4dtos3req9login_reqNtB5_16LoginReqKeycloakNtCs7uGmPRfeiaR_6utoipa8ToSchema7schemas
FNF:2
FNH:0
DA:4,0
DA:10,0
BRF:0
BRH:0
LF:2
LH:0
end_of_record
SF:/workspace/base/backend/oauth/src/core/dtos/req/update_role_partial_req.rs
FN:3,_RNvXNtNtNtNtCskY3J53qhLT7_5oauth4core4dtos3req23update_role_partial_reqNtB2_20UpdateRolePartialReqNtNtCs7uGmPRfeiaR_6utoipa5___dev13ComposeSchema7compose
FN:3,_RNvXs_NtNtNtNtCskY3J53qhLT7_5oauth4core4dtos3req23update_role_partial_reqNtB4_20UpdateRolePartialReqNtCs7uGmPRfeiaR_6utoipa8ToSchema4name
FN:3,_RNvXs_NtNtNtNtCskY3J53qhLT7_5oauth4core4dtos3req23update_role_partial_reqNtB4_20UpdateRolePartialReqNtCs7uGmPRfeiaR_6utoipa8ToSchema7schemas
FN:3,_RNvXNtNtNtNtCs16bWprmmhjH_5oauth4core4dtos3req23update_role_partial_reqNtB2_20UpdateRolePartialReqNtNtCs7uGmPRfeiaR_6utoipa5___dev13ComposeSchema7compose
FN:3,_RNvXs_NtNtNtNtCs16bWprmmhjH_5oauth4core4dtos3req23update_role_partial_reqNtB4_20UpdateRolePartialReqNtCs7uGmPRfeiaR_6utoipa8ToSchema4name
FN:3,_RNvXs_NtNtNtNtCs16bWprmmhjH_5oauth4core4dtos3req23update_role_partial_reqNtB4_20UpdateRolePartialReqNtCs7uGmPRfeiaR_6utoipa8ToSchema7schemas
FNDA:0,_RNvXNtNtNtNtCskY3J53qhLT7_5oauth4core4dtos3req23update_role_partial_reqNtB2_20UpdateRolePartialReqNtNtCs7uGmPRfeiaR_6utoipa5___dev13ComposeSchema7compose
FNDA:0,_RNvXs_NtNtNtNtCskY3J53qhLT7_5oauth4core4dtos3req23update_role_partial_reqNtB4_20UpdateRolePartialReqNtCs7uGmPRfeiaR_6utoipa8ToSchema4name
FNDA:0,_RNvXs_NtNtNtNtCskY3J53qhLT7_5oauth4core4dtos3req23update_role_partial_reqNtB4_20UpdateRolePartialReqNtCs7uGmPRfeiaR_6utoipa8ToSchema7schemas
FNDA:0,_RNvXNtNtNtNtCs16bWprmmhjH_5oauth4core4dtos3req23update_role_partial_reqNtB2_20UpdateRolePartialReqNtNtCs7uGmPRfeiaR_6utoipa5___dev13ComposeSchema7compose
FNDA:0,_RNvXs_NtNtNtNtCs16bWprmmhjH_5oauth4core4dtos3req23update_role_partial_reqNtB4_20UpdateRolePartialReqNtCs7uGmPRfeiaR_6utoipa8ToSchema4name
FNDA:0,_RNvXs_NtNtNtNtCs16bWprmmhjH_5oauth4core4dtos3req23update_role_partial_reqNtB4_20UpdateRolePartialReqNtCs7uGmPRfeiaR_6utoipa8ToSchema7schemas
FNF:2
FNH:0
DA:3,0
BRF:0
BRH:0
LF:2
LH:0
end_of_record
SF:/workspace/base/backend/oauth/src/core/dtos/req/update_user_req.rs
FN:3,_RNvXNtNtNtNtCskY3J53qhLT7_5oauth4core4dtos3req15update_user_reqNtB2_13UpdateUserReqNtNtCs7uGmPRfeiaR_6utoipa5___dev13ComposeSchema7compose
FN:3,_RNvXs_NtNtNtNtCskY3J53qhLT7_5oauth4core4dtos3req15update_user_reqNtB4_13UpdateUserReqNtCs7uGmPRfeiaR_6utoipa8ToSchema4name
FN:3,_RNvXs_NtNtNtNtCskY3J53qhLT7_5oauth4core4dtos3req15update_user_reqNtB4_13UpdateUserReqNtCs7uGmPRfeiaR_6utoipa8ToSchema7schemas
FN:3,_RNvXNtNtNtNtCs16bWprmmhjH_5oauth4core4dtos3req15update_user_reqNtB2_13UpdateUserReqNtNtCs7uGmPRfeiaR_6utoipa5___dev13ComposeSchema7compose
FN:3,_RNvXs_NtNtNtNtCs16bWprmmhjH_5oauth4core4dtos3req15update_user_reqNtB4_13UpdateUserReqNtCs7uGmPRfeiaR_6utoipa8ToSchema4name
FN:3,_RNvXs_NtNtNtNtCs16bWprmmhjH_5oauth4core4dtos3req15update_user_reqNtB4_13UpdateUserReqNtCs7uGmPRfeiaR_6utoipa8ToSchema7schemas
FNDA:0,_RNvXNtNtNtNtCskY3J53qhLT7_5oauth4core4dtos3req15update_user_reqNtB2_13UpdateUserReqNtNtCs7uGmPRfeiaR_6utoipa5___dev13ComposeSchema7compose
FNDA:0,_RNvXs_NtNtNtNtCskY3J53qhLT7_5oauth4core4dtos3req15update_user_reqNtB4_13UpdateUserReqNtCs7uGmPRfeiaR_6utoipa8ToSchema4name
FNDA:0,_RNvXs_NtNtNtNtCskY3J53qhLT7_5oauth4core4dtos3req15update_user_reqNtB4_13UpdateUserReqNtCs7uGmPRfeiaR_6utoipa8ToSchema7schemas
FNDA:0,_RNvXNtNtNtNtCs16bWprmmhjH_5oauth4core4dtos3req15update_user_reqNtB2_13UpdateUserReqNtNtCs7uGmPRfeiaR_6utoipa5___dev13ComposeSchema7compose
FNDA:0,_RNvXs_NtNtNtNtCs16bWprmmhjH_5oauth4core4dtos3req15update_user_reqNtB4_13UpdateUserReqNtCs7uGmPRfeiaR_6utoipa8ToSchema4name
FNDA:0,_RNvXs_NtNtNtNtCs16bWprmmhjH_5oauth4core4dtos3req15update_user_reqNtB4_13UpdateUserReqNtCs7uGmPRfeiaR_6utoipa8ToSchema7schemas
FNF:2
FNH:0
DA:3,0
BRF:0
BRH:0
LF:2
LH:0
end_of_record
SF:/workspace/base/backend/oauth/src/core/dtos/res/create_user_res.rs
FN:4,_RNvXs_NtNtNtNtCskY3J53qhLT7_5oauth4core4dtos3res15create_user_resNtB4_13CreateUserResNtNtCs7uGmPRfeiaR_6utoipa5___dev13ComposeSchema7compose
FN:4,_RNvXs0_NtNtNtNtCskY3J53qhLT7_5oauth4core4dtos3res15create_user_resNtB5_13CreateUserResNtCs7uGmPRfeiaR_6utoipa8ToSchema4name
FN:4,_RNvXs0_NtNtNtNtCskY3J53qhLT7_5oauth4core4dtos3res15create_user_resNtB5_13CreateUserResNtCs7uGmPRfeiaR_6utoipa8ToSchema7schemas
FN:4,_RNvXs_NtNtNtNtCs16bWprmmhjH_5oauth4core4dtos3res15create_user_resNtB4_13CreateUserResNtNtCs7uGmPRfeiaR_6utoipa5___dev13ComposeSchema7compose
FN:4,_RNvXs0_NtNtNtNtCs16bWprmmhjH_5oauth4core4dtos3res15create_user_resNtB5_13CreateUserResNtCs7uGmPRfeiaR_6utoipa8ToSchema4name
FN:4,_RNvXs0_NtNtNtNtCs16bWprmmhjH_5oauth4core4dtos3res15create_user_resNtB5_13CreateUserResNtCs7uGmPRfeiaR_6utoipa8ToSchema7schemas
FNDA:0,_RNvXs_NtNtNtNtCskY3J53qhLT7_5oauth4core4dtos3res15create_user_resNtB4_13CreateUserResNtNtCs7uGmPRfeiaR_6utoipa5___dev13ComposeSchema7compose
FNDA:0,_RNvXs0_NtNtNtNtCskY3J53qhLT7_5oauth4core4dtos3res15create_user_resNtB5_13CreateUserResNtCs7uGmPRfeiaR_6utoipa8ToSchema4name
FNDA:0,_RNvXs0_NtNtNtNtCskY3J53qhLT7_5oauth4core4dtos3res15create_user_resNtB5_13CreateUserResNtCs7uGmPRfeiaR_6utoipa8ToSchema7schemas
FNDA:0,_RNvXs_NtNtNtNtCs16bWprmmhjH_5oauth4core4dtos3res15create_user_resNtB4_13CreateUserResNtNtCs7uGmPRfeiaR_6utoipa5___dev13ComposeSchema7compose
FNDA:0,_RNvXs0_NtNtNtNtCs16bWprmmhjH_5oauth4core4dtos3res15create_user_resNtB5_13CreateUserResNtCs7uGmPRfeiaR_6utoipa8ToSchema4name
FNDA:0,_RNvXs0_NtNtNtNtCs16bWprmmhjH_5oauth4core4dtos3res15create_user_resNtB5_13CreateUserResNtCs7uGmPRfeiaR_6utoipa8ToSchema7schemas
FNF:1
FNH:0
DA:4,0
BRF:0
BRH:0
LF:1
LH:0
end_of_record
SF:/workspace/base/backend/oauth/src/core/dtos/res/get_all_roles_res.rs
FN:4,_RNvXs_NtNtNtNtCskY3J53qhLT7_5oauth4core4dtos3res17get_all_roles_resNtB4_14GetAllRolesResNtNtCs7uGmPRfeiaR_6utoipa5___dev13ComposeSchema7compose
FN:4,_RNvXs0_NtNtNtNtCskY3J53qhLT7_5oauth4core4dtos3res17get_all_roles_resNtB5_14GetAllRolesResNtCs7uGmPRfeiaR_6utoipa8ToSchema4name
FN:4,_RNvXs0_NtNtNtNtCskY3J53qhLT7_5oauth4core4dtos3res17get_all_roles_resNtB5_14GetAllRolesResNtCs7uGmPRfeiaR_6utoipa8ToSchema7schemas
FN:4,_RNvXs_NtNtNtNtCs16bWprmmhjH_5oauth4core4dtos3res17get_all_roles_resNtB4_14GetAllRolesResNtNtCs7uGmPRfeiaR_6utoipa5___dev13ComposeSchema7compose
FN:4,_RNvXs0_NtNtNtNtCs16bWprmmhjH_5oauth4core4dtos3res17get_all_roles_resNtB5_14GetAllRolesResNtCs7uGmPRfeiaR_6utoipa8ToSchema4name
FN:4,_RNvXs0_NtNtNtNtCs16bWprmmhjH_5oauth4core4dtos3res17get_all_roles_resNtB5_14GetAllRolesResNtCs7uGmPRfeiaR_6utoipa8ToSchema7schemas
FNDA:0,_RNvXs_NtNtNtNtCskY3J53qhLT7_5oauth4core4dtos3res17get_all_roles_resNtB4_14GetAllRolesResNtNtCs7uGmPRfeiaR_6utoipa5___dev13ComposeSchema7compose
FNDA:0,_RNvXs0_NtNtNtNtCskY3J53qhLT7_5oauth4core4dtos3res17get_all_roles_resNtB5_14GetAllRolesResNtCs7uGmPRfeiaR_6utoipa8ToSchema4name
FNDA:0,_RNvXs0_NtNtNtNtCskY3J53qhLT7_5oauth4core4dtos3res17get_all_roles_resNtB5_14GetAllRolesResNtCs7uGmPRfeiaR_6utoipa8ToSchema7schemas
FNDA:0,_RNvXs_NtNtNtNtCs16bWprmmhjH_5oauth4core4dtos3res17get_all_roles_resNtB4_14GetAllRolesResNtNtCs7uGmPRfeiaR_6utoipa5___dev13ComposeSchema7compose
FNDA:0,_RNvXs0_NtNtNtNtCs16bWprmmhjH_5oauth4core4dtos3res17get_all_roles_resNtB5_14GetAllRolesResNtCs7uGmPRfeiaR_6utoipa8ToSchema4name
FNDA:0,_RNvXs0_NtNtNtNtCs16bWprmmhjH_5oauth4core4dtos3res17get_all_roles_resNtB5_14GetAllRolesResNtCs7uGmPRfeiaR_6utoipa8ToSchema7schemas
FNF:1
FNH:0
DA:4,0
BRF:0
BRH:0
LF:1
LH:0
end_of_record
SF:/workspace/base/backend/oauth/src/core/dtos/res/get_all_users_res.rs
FN:4,_RNvXs_NtNtNtNtCskY3J53qhLT7_5oauth4core4dtos3res17get_all_users_resNtB4_11GetUsersResNtNtCs7uGmPRfeiaR_6utoipa5___dev13ComposeSchema7compose
FN:4,_RNvXs0_NtNtNtNtCskY3J53qhLT7_5oauth4core4dtos3res17get_all_users_resNtB5_11GetUsersResNtCs7uGmPRfeiaR_6utoipa8ToSchema4name
FN:4,_RNvXs0_NtNtNtNtCskY3J53qhLT7_5oauth4core4dtos3res17get_all_users_resNtB5_11GetUsersResNtCs7uGmPRfeiaR_6utoipa8ToSchema7schemas
FN:4,_RNvXs_NtNtNtNtCs16bWprmmhjH_5oauth4core4dtos3res17get_all_users_resNtB4_11GetUsersResNtNtCs7uGmPRfeiaR_6utoipa5___dev13ComposeSchema7compose
FN:4,_RNvXs0_NtNtNtNtCs16bWprmmhjH_5oauth4core4dtos3res17get_all_users_resNtB5_11GetUsersResNtCs7uGmPRfeiaR_6utoipa8ToSchema4name
FN:4,_RNvXs0_NtNtNtNtCs16bWprmmhjH_5oauth4core4dtos3res17get_all_users_resNtB5_11GetUsersResNtCs7uGmPRfeiaR_6utoipa8ToSchema7schemas
FNDA:0,_RNvXs_NtNtNtNtCskY3J53qhLT7_5oauth4core4dtos3res17get_all_users_resNtB4_11GetUsersResNtNtCs7uGmPRfeiaR_6utoipa5___dev13ComposeSchema7compose
FNDA:0,_RNvXs0_NtNtNtNtCskY3J53qhLT7_5oauth4core4dtos3res17get_all_users_resNtB5_11GetUsersResNtCs7uGmPRfeiaR_6utoipa8ToSchema4name
FNDA:0,_RNvXs0_NtNtNtNtCskY3J53qhLT7_5oauth4core4dtos3res17get_all_users_resNtB5_11GetUsersResNtCs7uGmPRfeiaR_6utoipa8ToSchema7schemas
FNDA:0,_RNvXs_NtNtNtNtCs16bWprmmhjH_5oauth4core4dtos3res17get_all_users_resNtB4_11GetUsersResNtNtCs7uGmPRfeiaR_6utoipa5___dev13ComposeSchema7compose
FNDA:0,_RNvXs0_NtNtNtNtCs16bWprmmhjH_5oauth4core4dtos3res17get_all_users_resNtB5_11GetUsersResNtCs7uGmPRfeiaR_6utoipa8ToSchema4name
FNDA:0,_RNvXs0_NtNtNtNtCs16bWprmmhjH_5oauth4core4dtos3res17get_all_users_resNtB5_11GetUsersResNtCs7uGmPRfeiaR_6utoipa8ToSchema7schemas
FNF:1
FNH:0
DA:4,0
BRF:0
BRH:0
LF:1
LH:0
end_of_record
SF:/workspace/base/backend/oauth/src/core/dtos/res/get_role_res.rs
FN:3,_RNvXs_NtNtNtNtCskY3J53qhLT7_5oauth4core4dtos3res12get_role_resNtB4_10GetRoleResNtNtCs7uGmPRfeiaR_6utoipa5___dev13ComposeSchema7compose
FN:3,_RNvXs0_NtNtNtNtCskY3J53qhLT7_5oauth4core4dtos3res12get_role_resNtB5_10GetRoleResNtCs7uGmPRfeiaR_6utoipa8ToSchema4name
FN:3,_RNvXs0_NtNtNtNtCskY3J53qhLT7_5oauth4core4dtos3res12get_role_resNtB5_10GetRoleResNtCs7uGmPRfeiaR_6utoipa8ToSchema7schemas
FN:3,_RNvXs_NtNtNtNtCs16bWprmmhjH_5oauth4core4dtos3res12get_role_resNtB4_10GetRoleResNtNtCs7uGmPRfeiaR_6utoipa5___dev13ComposeSchema7compose
FN:3,_RNvXs0_NtNtNtNtCs16bWprmmhjH_5oauth4core4dtos3res12get_role_resNtB5_10GetRoleResNtCs7uGmPRfeiaR_6utoipa8ToSchema4name
FN:3,_RNvXs0_NtNtNtNtCs16bWprmmhjH_5oauth4core4dtos3res12get_role_resNtB5_10GetRoleResNtCs7uGmPRfeiaR_6utoipa8ToSchema7schemas
FNDA:0,_RNvXs_NtNtNtNtCskY3J53qhLT7_5oauth4core4dtos3res12get_role_resNtB4_10GetRoleResNtNtCs7uGmPRfeiaR_6utoipa5___dev13ComposeSchema7compose
FNDA:0,_RNvXs0_NtNtNtNtCskY3J53qhLT7_5oauth4core4dtos3res12get_role_resNtB5_10GetRoleResNtCs7uGmPRfeiaR_6utoipa8ToSchema4name
FNDA:0,_RNvXs0_NtNtNtNtCskY3J53qhLT7_5oauth4core4dtos3res12get_role_resNtB5_10GetRoleResNtCs7uGmPRfeiaR_6utoipa8ToSchema7schemas
FNDA:0,_RNvXs_NtNtNtNtCs16bWprmmhjH_5oauth4core4dtos3res12get_role_resNtB4_10GetRoleResNtNtCs7uGmPRfeiaR_6utoipa5___dev13ComposeSchema7compose
FNDA:0,_RNvXs0_NtNtNtNtCs16bWprmmhjH_5oauth4core4dtos3res12get_role_resNtB5_10GetRoleResNtCs7uGmPRfeiaR_6utoipa8ToSchema4name
FNDA:0,_RNvXs0_NtNtNtNtCs16bWprmmhjH_5oauth4core4dtos3res12get_role_resNtB5_10GetRoleResNtCs7uGmPRfeiaR_6utoipa8ToSchema7schemas
FNF:1
FNH:0
DA:3,0
BRF:0
BRH:0
LF:1
LH:0
end_of_record
SF:/workspace/base/backend/oauth/src/core/dtos/res/get_user_res.rs
FN:3,_RNvXs_NtNtNtNtCskY3J53qhLT7_5oauth4core4dtos3res12get_user_resNtB4_10GetUserResNtNtCs7uGmPRfeiaR_6utoipa5___dev13ComposeSchema7compose
FN:3,_RNvXs0_NtNtNtNtCskY3J53qhLT7_5oauth4core4dtos3res12get_user_resNtB5_10GetUserResNtCs7uGmPRfeiaR_6utoipa8ToSchema4name
FN:3,_RNvXs0_NtNtNtNtCskY3J53qhLT7_5oauth4core4dtos3res12get_user_resNtB5_10GetUserResNtCs7uGmPRfeiaR_6utoipa8ToSchema7schemas
FN:3,_RNvXs_NtNtNtNtCs16bWprmmhjH_5oauth4core4dtos3res12get_user_resNtB4_10GetUserResNtNtCs7uGmPRfeiaR_6utoipa5___dev13ComposeSchema7compose
FN:3,_RNvXs0_NtNtNtNtCs16bWprmmhjH_5oauth4core4dtos3res12get_user_resNtB5_10GetUserResNtCs7uGmPRfeiaR_6utoipa8ToSchema4name
FN:3,_RNvXs0_NtNtNtNtCs16bWprmmhjH_5oauth4core4dtos3res12get_user_resNtB5_10GetUserResNtCs7uGmPRfeiaR_6utoipa8ToSchema7schemas
FNDA:0,_RNvXs_NtNtNtNtCskY3J53qhLT7_5oauth4core4dtos3res12get_user_resNtB4_10GetUserResNtNtCs7uGmPRfeiaR_6utoipa5___dev13ComposeSchema7compose
FNDA:0,_RNvXs0_NtNtNtNtCskY3J53qhLT7_5oauth4core4dtos3res12get_user_resNtB5_10GetUserResNtCs7uGmPRfeiaR_6utoipa8ToSchema4name
FNDA:0,_RNvXs0_NtNtNtNtCskY3J53qhLT7_5oauth4core4dtos3res12get_user_resNtB5_10GetUserResNtCs7uGmPRfeiaR_6utoipa8ToSchema7schemas
FNDA:0,_RNvXs_NtNtNtNtCs16bWprmmhjH_5oauth4core4dtos3res12get_user_resNtB4_10GetUserResNtNtCs7uGmPRfeiaR_6utoipa5___dev13ComposeSchema7compose
FNDA:0,_RNvXs0_NtNtNtNtCs16bWprmmhjH_5oauth4core4dtos3res12get_user_resNtB5_10GetUserResNtCs7uGmPRfeiaR_6utoipa8ToSchema4name
FNDA:0,_RNvXs0_NtNtNtNtCs16bWprmmhjH_5oauth4core4dtos3res12get_user_resNtB5_10GetUserResNtCs7uGmPRfeiaR_6utoipa8ToSchema7schemas
FNF:1
FNH:0
DA:3,0
BRF:0
BRH:0
LF:1
LH:0
end_of_record
SF:/workspace/base/backend/oauth/src/core/dtos/res/login_res.rs
FN:3,_RNvXs_NtNtNtNtCskY3J53qhLT7_5oauth4core4dtos3res9login_resNtB4_8LoginResNtNtCs7uGmPRfeiaR_6utoipa5___dev13ComposeSchema7compose
FN:3,_RNvXs0_NtNtNtNtCskY3J53qhLT7_5oauth4core4dtos3res9login_resNtB5_8LoginResNtCs7uGmPRfeiaR_6utoipa8ToSchema4name
FN:3,_RNvXs0_NtNtNtNtCskY3J53qhLT7_5oauth4core4dtos3res9login_resNtB5_8LoginResNtCs7uGmPRfeiaR_6utoipa8ToSchema7schemas
FN:12,_RNvXs2_NtNtNtNtCskY3J53qhLT7_5oauth4core4dtos3res9login_resNtB5_16LoginResKeycloakNtNtCs7uGmPRfeiaR_6utoipa5___dev13ComposeSchema7compose
FN:12,_RNvXs3_NtNtNtNtCskY3J53qhLT7_5oauth4core4dtos3res9login_resNtB5_16LoginResKeycloakNtCs7uGmPRfeiaR_6utoipa8ToSchema4name
FN:12,_RNvXs3_NtNtNtNtCskY3J53qhLT7_5oauth4core4dtos3res9login_resNtB5_16LoginResKeycloakNtCs7uGmPRfeiaR_6utoipa8ToSchema7schemas
FN:3,_RNvXs_NtNtNtNtCs16bWprmmhjH_5oauth4core4dtos3res9login_resNtB4_8LoginResNtNtCs7uGmPRfeiaR_6utoipa5___dev13ComposeSchema7compose
FN:3,_RNvXs0_NtNtNtNtCs16bWprmmhjH_5oauth4core4dtos3res9login_resNtB5_8LoginResNtCs7uGmPRfeiaR_6utoipa8ToSchema4name
FN:3,_RNvXs0_NtNtNtNtCs16bWprmmhjH_5oauth4core4dtos3res9login_resNtB5_8LoginResNtCs7uGmPRfeiaR_6utoipa8ToSchema7schemas
FN:12,_RNvXs2_NtNtNtNtCs16bWprmmhjH_5oauth4core4dtos3res9login_resNtB5_16LoginResKeycloakNtNtCs7uGmPRfeiaR_6utoipa5___dev13ComposeSchema7compose
FN:12,_RNvXs3_NtNtNtNtCs16bWprmmhjH_5oauth4core4dtos3res9login_resNtB5_16LoginResKeycloakNtCs7uGmPRfeiaR_6utoipa8ToSchema4name
FN:12,_RNvXs3_NtNtNtNtCs16bWprmmhjH_5oauth4core4dtos3res9login_resNtB5_16LoginResKeycloakNtCs7uGmPRfeiaR_6utoipa8ToSchema7schemas
FNDA:0,_RNvXs_NtNtNtNtCskY3J53qhLT7_5oauth4core4dtos3res9login_resNtB4_8LoginResNtNtCs7uGmPRfeiaR_6utoipa5___dev13ComposeSchema7compose
FNDA:0,_RNvXs0_NtNtNtNtCskY3J53qhLT7_5oauth4core4dtos3res9login_resNtB5_8LoginResNtCs7uGmPRfeiaR_6utoipa8ToSchema4name
FNDA:0,_RNvXs0_NtNtNtNtCskY3J53qhLT7_5oauth4core4dtos3res9login_resNtB5_8LoginResNtCs7uGmPRfeiaR_6utoipa8ToSchema7schemas
FNDA:0,_RNvXs2_NtNtNtNtCskY3J53qhLT7_5oauth4core4dtos3res9login_resNtB5_16LoginResKeycloakNtNtCs7uGmPRfeiaR_6utoipa5___dev13ComposeSchema7compose
FNDA:0,_RNvXs3_NtNtNtNtCskY3J53qhLT7_5oauth4core4dtos3res9login_resNtB5_16LoginResKeycloakNtCs7uGmPRfeiaR_6utoipa8ToSchema4name
FNDA:0,_RNvXs3_NtNtNtNtCskY3J53qhLT7_5oauth4core4dtos3res9login_resNtB5_16LoginResKeycloakNtCs7uGmPRfeiaR_6utoipa8ToSchema7schemas
FNDA:0,_RNvXs_NtNtNtNtCs16bWprmmhjH_5oauth4core4dtos3res9login_resNtB4_8LoginResNtNtCs7uGmPRfeiaR_6utoipa5___dev13ComposeSchema7compose
FNDA:0,_RNvXs0_NtNtNtNtCs16bWprmmhjH_5oauth4core4dtos3res9login_resNtB5_8LoginResNtCs7uGmPRfeiaR_6utoipa8ToSchema4name
FNDA:0,_RNvXs0_NtNtNtNtCs16bWprmmhjH_5oauth4core4dtos3res9login_resNtB5_8LoginResNtCs7uGmPRfeiaR_6utoipa8ToSchema7schemas
FNDA:0,_RNvXs2_NtNtNtNtCs16bWprmmhjH_5oauth4core4dtos3res9login_resNtB5_16LoginResKeycloakNtNtCs7uGmPRfeiaR_6utoipa5___dev13ComposeSchema7compose
FNDA:0,_RNvXs3_NtNtNtNtCs16bWprmmhjH_5oauth4core4dtos3res9login_resNtB5_16LoginResKeycloakNtCs7uGmPRfeiaR_6utoipa8ToSchema4name
FNDA:0,_RNvXs3_NtNtNtNtCs16bWprmmhjH_5oauth4core4dtos3res9login_resNtB5_16LoginResKeycloakNtCs7uGmPRfeiaR_6utoipa8ToSchema7schemas
FNF:2
FNH:0
DA:3,0
DA:12,0
BRF:0
BRH:0
LF:2
LH:0
end_of_record
SF:/workspace/base/backend/oauth/src/core/error.rs
FN:60,_RNvXNtNtCskY3J53qhLT7_5oauth4core5errorNtB2_8AppErrorNtNtNtCsb9zwYTRy8hm_9actix_web5error14response_error13ResponseError11status_code
FN:74,_RNvXNtNtCskY3J53qhLT7_5oauth4core5errorNtB2_8AppErrorNtNtNtCsb9zwYTRy8hm_9actix_web5error14response_error13ResponseError14error_response
FN:60,_RNvXNtNtCs16bWprmmhjH_5oauth4core5errorNtB2_8AppErrorNtNtNtCsb9zwYTRy8hm_9actix_web5error14response_error13ResponseError11status_code
FN:74,_RNvXNtNtCs16bWprmmhjH_5oauth4core5errorNtB2_8AppErrorNtNtNtCsb9zwYTRy8hm_9actix_web5error14response_error13ResponseError14error_response
FNDA:0,_RNvXNtNtCskY3J53qhLT7_5oauth4core5errorNtB2_8AppErrorNtNtNtCsb9zwYTRy8hm_9actix_web5error14response_error13ResponseError11status_code
FNDA:0,_RNvXNtNtCskY3J53qhLT7_5oauth4core5errorNtB2_8AppErrorNtNtNtCsb9zwYTRy8hm_9actix_web5error14response_error13ResponseError14error_response
FNDA:0,_RNvXNtNtCs16bWprmmhjH_5oauth4core5errorNtB2_8AppErrorNtNtNtCsb9zwYTRy8hm_9actix_web5error14response_error13ResponseError11status_code
FNDA:0,_RNvXNtNtCs16bWprmmhjH_5oauth4core5errorNtB2_8AppErrorNtNtNtCsb9zwYTRy8hm_9actix_web5error14response_error13ResponseError14error_response
FNF:2
FNH:0
DA:60,0
DA:61,0
DA:62,0
DA:63,0
DA:64,0
DA:65,0
DA:66,0
DA:67,0
DA:68,0
DA:69,0
DA:72,0
DA:74,0
DA:75,0
DA:76,0
DA:78,0
DA:79,0
DA:80,0
DA:81,0
DA:82,0
DA:83,0
DA:84,0
DA:85,0
DA:88,0
DA:89,0
DA:90,0
DA:91,0
DA:92,0
DA:93,0
DA:94,0
DA:95,0
DA:96,0
DA:98,0
DA:99,0
DA:100,0
DA:101,0
DA:102,0
DA:103,0
DA:104,0
DA:105,0
DA:106,0
BRF:0
BRH:0
LF:40
LH:0
end_of_record
SF:/workspace/base/backend/oauth/src/core/services/general_service.rs
FN:8,_RINvNtNtNtCskY3J53qhLT7_5oauth4core8services15general_service13login_serviceNtCskBDsxNRopw5_15login_unit_test16MockAuthProviderEB1e_
FN:11,_RNCINvNtNtNtCskY3J53qhLT7_5oauth4core8services15general_service13login_serviceNtCskBDsxNRopw5_15login_unit_test16MockAuthProviderE0B1g_
FN:8,_RINvNtNtNtCskY3J53qhLT7_5oauth4core8services15general_service13login_serviceNtNtNtNtB8_8adapters8keycloak16keycloak_adapter19KeycloakAuthAdapterEB8_
FN:11,_RNCINvNtNtNtCskY3J53qhLT7_5oauth4core8services15general_service13login_serviceNtNtNtNtBa_8adapters8keycloak16keycloak_adapter19KeycloakAuthAdapterE0Ba_
FN:8,_RINvNtNtNtCs16bWprmmhjH_5oauth4core8services15general_service13login_servicepEB8_
FN:11,_RNCINvNtNtNtCs16bWprmmhjH_5oauth4core8services15general_service13login_servicepE0Ba_
FNDA:7,_RINvNtNtNtCskY3J53qhLT7_5oauth4core8services15general_service13login_serviceNtCskBDsxNRopw5_15login_unit_test16MockAuthProviderEB1e_
FNDA:7,_RNCINvNtNtNtCskY3J53qhLT7_5oauth4core8services15general_service13login_serviceNtCskBDsxNRopw5_15login_unit_test16MockAuthProviderE0B1g_
FNDA:0,_RINvNtNtNtCskY3J53qhLT7_5oauth4core8services15general_service13login_serviceNtNtNtNtB8_8adapters8keycloak16keycloak_adapter19KeycloakAuthAdapterEB8_
FNDA:0,_RNCINvNtNtNtCskY3J53qhLT7_5oauth4core8services15general_service13login_serviceNtNtNtNtBa_8adapters8keycloak16keycloak_adapter19KeycloakAuthAdapterE0Ba_
FNDA:0,_RINvNtNtNtCs16bWprmmhjH_5oauth4core8services15general_service13login_servicepEB8_
FNDA:0,_RNCINvNtNtNtCs16bWprmmhjH_5oauth4core8services15general_service13login_servicepE0Ba_
FNF:2
FNH:2
DA:8,7
DA:9,7
DA:10,7
DA:11,7
DA:12,7
DA:13,5
DA:14,2
DA:15,2
DA:16,2
DA:17,2
DA:18,2
DA:19,2
DA:20,2
DA:21,2
DA:22,2
DA:23,2
DA:24,2
DA:25,2
DA:27,2
DA:29,1
DA:30,1
DA:31,1
DA:32,1
DA:33,1
DA:34,1
DA:35,1
DA:36,7
BRF:0
BRH:0
LF:28
LH:28
end_of_record
SF:/workspace/base/backend/oauth/src/core/services/role_service.rs
FN:11,_RINvNtNtNtCskY3J53qhLT7_5oauth4core8services12role_service17get_roles_serviceNtNtNtNtB8_8adapters8keycloak16keycloak_adapter19KeycloakRoleAdapterEB8_
FN:14,_RNCINvNtNtNtCskY3J53qhLT7_5oauth4core8services12role_service17get_roles_serviceNtNtNtNtBa_8adapters8keycloak16keycloak_adapter19KeycloakRoleAdapterE0Ba_
FN:18,_RINvNtNtNtCskY3J53qhLT7_5oauth4core8services12role_service16get_role_serviceNtNtNtNtB8_8adapters8keycloak16keycloak_adapter19KeycloakRoleAdapterEB8_
FN:22,_RNCINvNtNtNtCskY3J53qhLT7_5oauth4core8services12role_service16get_role_serviceNtNtNtNtBa_8adapters8keycloak16keycloak_adapter19KeycloakRoleAdapterE0Ba_
FN:26,_RINvNtNtNtCskY3J53qhLT7_5oauth4core8services12role_service19create_role_serviceNtNtNtNtB8_8adapters8keycloak16keycloak_adapter19KeycloakRoleAdapterEB8_
FN:30,_RNCINvNtNtNtCskY3J53qhLT7_5oauth4core8services12role_service19create_role_serviceNtNtNtNtBa_8adapters8keycloak16keycloak_adapter19KeycloakRoleAdapterE0Ba_
FN:37,_RINvNtNtNtCskY3J53qhLT7_5oauth4core8services12role_service19update_role_serviceNtNtNtNtB8_8adapters8keycloak16keycloak_adapter19KeycloakRoleAdapterEB8_
FN:42,_RNCINvNtNtNtCskY3J53qhLT7_5oauth4core8services12role_service19update_role_serviceNtNtNtNtBa_8adapters8keycloak16keycloak_adapter19KeycloakRoleAdapterE0Ba_
FN:49,_RINvNtNtNtCskY3J53qhLT7_5oauth4core8services12role_service19delete_role_serviceNtNtNtNtB8_8adapters8keycloak16keycloak_adapter19KeycloakRoleAdapterEB8_
FN:53,_RNCINvNtNtNtCskY3J53qhLT7_5oauth4core8services12role_service19delete_role_serviceNtNtNtNtBa_8adapters8keycloak16keycloak_adapter19KeycloakRoleAdapterE0Ba_
FN:57,_RINvNtNtNtCskY3J53qhLT7_5oauth4core8services12role_service18patch_role_serviceNtNtNtNtB8_8adapters8keycloak16keycloak_adapter19KeycloakRoleAdapterEB8_
FN:62,_RNCINvNtNtNtCskY3J53qhLT7_5oauth4core8services12role_service18patch_role_serviceNtNtNtNtBa_8adapters8keycloak16keycloak_adapter19KeycloakRoleAdapterE0Ba_
FN:11,_RINvNtNtNtCs16bWprmmhjH_5oauth4core8services12role_service17get_roles_servicepEB8_
FN:14,_RNCINvNtNtNtCs16bWprmmhjH_5oauth4core8services12role_service17get_roles_servicepE0Ba_
FN:18,_RINvNtNtNtCs16bWprmmhjH_5oauth4core8services12role_service16get_role_servicepEB8_
FN:22,_RNCINvNtNtNtCs16bWprmmhjH_5oauth4core8services12role_service16get_role_servicepE0Ba_
FN:26,_RINvNtNtNtCs16bWprmmhjH_5oauth4core8services12role_service19create_role_servicepEB8_
FN:30,_RNCINvNtNtNtCs16bWprmmhjH_5oauth4core8services12role_service19create_role_servicepE0Ba_
FN:37,_RINvNtNtNtCs16bWprmmhjH_5oauth4core8services12role_service19update_role_servicepEB8_
FN:42,_RNCINvNtNtNtCs16bWprmmhjH_5oauth4core8services12role_service19update_role_servicepE0Ba_
FN:49,_RINvNtNtNtCs16bWprmmhjH_5oauth4core8services12role_service19delete_role_servicepEB8_
FN:53,_RNCINvNtNtNtCs16bWprmmhjH_5oauth4core8services12role_service19delete_role_servicepE0Ba_
FN:57,_RINvNtNtNtCs16bWprmmhjH_5oauth4core8services12role_service18patch_role_servicepEB8_
FN:62,_RNCINvNtNtNtCs16bWprmmhjH_5oauth4core8services12role_service18patch_role_servicepE0Ba_
FN:18,_RINvNtNtNtCskY3J53qhLT7_5oauth4core8services12role_service16get_role_serviceNtCs5AxZ21aBbjQ_22role_service_unit_test16MockRoleProviderEB1e_
FN:11,_RINvNtNtNtCskY3J53qhLT7_5oauth4core8services12role_service17get_roles_serviceNtCs5AxZ21aBbjQ_22role_service_unit_test16MockRoleProviderEB1f_
FN:57,_RINvNtNtNtCskY3J53qhLT7_5oauth4core8services12role_service18patch_role_serviceNtCs5AxZ21aBbjQ_22role_service_unit_test16MockRoleProviderEB1g_
FN:26,_RINvNtNtNtCskY3J53qhLT7_5oauth4core8services12role_service19create_role_serviceNtCs5AxZ21aBbjQ_22role_service_unit_test16MockRoleProviderEB1h_
FN:49,_RINvNtNtNtCskY3J53qhLT7_5oauth4core8services12role_service19delete_role_serviceNtCs5AxZ21aBbjQ_22role_service_unit_test16MockRoleProviderEB1h_
FN:37,_RINvNtNtNtCskY3J53qhLT7_5oauth4core8services12role_service19update_role_serviceNtCs5AxZ21aBbjQ_22role_service_unit_test16MockRoleProviderEB1h_
FN:22,_RNCINvNtNtNtCskY3J53qhLT7_5oauth4core8services12role_service16get_role_serviceNtCs5AxZ21aBbjQ_22role_service_unit_test16MockRoleProviderE0B1g_
FN:14,_RNCINvNtNtNtCskY3J53qhLT7_5oauth4core8services12role_service17get_roles_serviceNtCs5AxZ21aBbjQ_22role_service_unit_test16MockRoleProviderE0B1h_
FN:62,_RNCINvNtNtNtCskY3J53qhLT7_5oauth4core8services12role_service18patch_role_serviceNtCs5AxZ21aBbjQ_22role_service_unit_test16MockRoleProviderE0B1i_
FN:30,_RNCINvNtNtNtCskY3J53qhLT7_5oauth4core8services12role_service19create_role_serviceNtCs5AxZ21aBbjQ_22role_service_unit_test16MockRoleProviderE0B1j_
FN:53,_RNCINvNtNtNtCskY3J53qhLT7_5oauth4core8services12role_service19delete_role_serviceNtCs5AxZ21aBbjQ_22role_service_unit_test16MockRoleProviderE0B1j_
FN:42,_RNCINvNtNtNtCskY3J53qhLT7_5oauth4core8services12role_service19update_role_serviceNtCs5AxZ21aBbjQ_22role_service_unit_test16MockRoleProviderE0B1j_
FNDA:0,_RINvNtNtNtCskY3J53qhLT7_5oauth4core8services12role_service17get_roles_serviceNtNtNtNtB8_8adapters8keycloak16keycloak_adapter19KeycloakRoleAdapterEB8_
FNDA:0,_RNCINvNtNtNtCskY3J53qhLT7_5oauth4core8services12role_service17get_roles_serviceNtNtNtNtBa_8adapters8keycloak16keycloak_adapter19KeycloakRoleAdapterE0Ba_
FNDA:0,_RINvNtNtNtCskY3J53qhLT7_5oauth4core8services12role_service16get_role_serviceNtNtNtNtB8_8adapters8keycloak16keycloak_adapter19KeycloakRoleAdapterEB8_
FNDA:0,_RNCINvNtNtNtCskY3J53qhLT7_5oauth4core8services12role_service16get_role_serviceNtNtNtNtBa_8adapters8keycloak16keycloak_adapter19KeycloakRoleAdapterE0Ba_
FNDA:0,_RINvNtNtNtCskY3J53qhLT7_5oauth4core8services12role_service19create_role_serviceNtNtNtNtB8_8adapters8keycloak16keycloak_adapter19KeycloakRoleAdapterEB8_
FNDA:0,_RNCINvNtNtNtCskY3J53qhLT7_5oauth4core8services12role_service19create_role_serviceNtNtNtNtBa_8adapters8keycloak16keycloak_adapter19KeycloakRoleAdapterE0Ba_
FNDA:0,_RINvNtNtNtCskY3J53qhLT7_5oauth4core8services12role_service19update_role_serviceNtNtNtNtB8_8adapters8keycloak16keycloak_adapter19KeycloakRoleAdapterEB8_
FNDA:0,_RNCINvNtNtNtCskY3J53qhLT7_5oauth4core8services12role_service19update_role_serviceNtNtNtNtBa_8adapters8keycloak16keycloak_adapter19KeycloakRoleAdapterE0Ba_
FNDA:0,_RINvNtNtNtCskY3J53qhLT7_5oauth4core8services12role_service19delete_role_serviceNtNtNtNtB8_8adapters8keycloak16keycloak_adapter19KeycloakRoleAdapterEB8_
FNDA:0,_RNCINvNtNtNtCskY3J53qhLT7_5oauth4core8services12role_service19delete_role_serviceNtNtNtNtBa_8adapters8keycloak16keycloak_adapter19KeycloakRoleAdapterE0Ba_
FNDA:0,_RINvNtNtNtCskY3J53qhLT7_5oauth4core8services12role_service18patch_role_serviceNtNtNtNtB8_8adapters8keycloak16keycloak_adapter19KeycloakRoleAdapterEB8_
FNDA:0,_RNCINvNtNtNtCskY3J53qhLT7_5oauth4core8services12role_service18patch_role_serviceNtNtNtNtBa_8adapters8keycloak16keycloak_adapter19KeycloakRoleAdapterE0Ba_
FNDA:0,_RINvNtNtNtCs16bWprmmhjH_5oauth4core8services12role_service17get_roles_servicepEB8_
FNDA:0,_RNCINvNtNtNtCs16bWprmmhjH_5oauth4core8services12role_service17get_roles_servicepE0Ba_
FNDA:0,_RINvNtNtNtCs16bWprmmhjH_5oauth4core8services12role_service16get_role_servicepEB8_
FNDA:0,_RNCINvNtNtNtCs16bWprmmhjH_5oauth4core8services12role_service16get_role_servicepE0Ba_
FNDA:0,_RINvNtNtNtCs16bWprmmhjH_5oauth4core8services12role_service19create_role_servicepEB8_
FNDA:0,_RNCINvNtNtNtCs16bWprmmhjH_5oauth4core8services12role_service19create_role_servicepE0Ba_
FNDA:0,_RINvNtNtNtCs16bWprmmhjH_5oauth4core8services12role_service19update_role_servicepEB8_
FNDA:0,_RNCINvNtNtNtCs16bWprmmhjH_5oauth4core8services12role_service19update_role_servicepE0Ba_
FNDA:0,_RINvNtNtNtCs16bWprmmhjH_5oauth4core8services12role_service19delete_role_servicepEB8_
FNDA:0,_RNCINvNtNtNtCs16bWprmmhjH_5oauth4core8services12role_service19delete_role_servicepE0Ba_
FNDA:0,_RINvNtNtNtCs16bWprmmhjH_5oauth4core8services12role_service18patch_role_servicepEB8_
FNDA:0,_RNCINvNtNtNtCs16bWprmmhjH_5oauth4core8services12role_service18patch_role_servicepE0Ba_
FNDA:2,_RINvNtNtNtCskY3J53qhLT7_5oauth4core8services12role_service16get_role_serviceNtCs5AxZ21aBbjQ_22role_service_unit_test16MockRoleProviderEB1e_
FNDA:2,_RINvNtNtNtCskY3J53qhLT7_5oauth4core8services12role_service17get_roles_serviceNtCs5AxZ21aBbjQ_22role_service_unit_test16MockRoleProviderEB1f_
FNDA:3,_RINvNtNtNtCskY3J53qhLT7_5oauth4core8services12role_service18patch_role_serviceNtCs5AxZ21aBbjQ_22role_service_unit_test16MockRoleProviderEB1g_
FNDA:3,_RINvNtNtNtCskY3J53qhLT7_5oauth4core8services12role_service19create_role_serviceNtCs5AxZ21aBbjQ_22role_service_unit_test16MockRoleProviderEB1h_
FNDA:2,_RINvNtNtNtCskY3J53qhLT7_5oauth4core8services12role_service19delete_role_serviceNtCs5AxZ21aBbjQ_22role_service_unit_test16MockRoleProviderEB1h_
FNDA:3,_RINvNtNtNtCskY3J53qhLT7_5oauth4core8services12role_service19update_role_serviceNtCs5AxZ21aBbjQ_22role_service_unit_test16MockRoleProviderEB1h_
FNDA:2,_RNCINvNtNtNtCskY3J53qhLT7_5oauth4core8services12role_service16get_role_serviceNtCs5AxZ21aBbjQ_22role_service_unit_test16MockRoleProviderE0B1g_
FNDA:2,_RNCINvNtNtNtCskY3J53qhLT7_5oauth4core8services12role_service17get_roles_serviceNtCs5AxZ21aBbjQ_22role_service_unit_test16MockRoleProviderE0B1h_
FNDA:3,_RNCINvNtNtNtCskY3J53qhLT7_5oauth4core8services12role_service18patch_role_serviceNtCs5AxZ21aBbjQ_22role_service_unit_test16MockRoleProviderE0B1i_
FNDA:3,_RNCINvNtNtNtCskY3J53qhLT7_5oauth4core8services12role_service19create_role_serviceNtCs5AxZ21aBbjQ_22role_service_unit_test16MockRoleProviderE0B1j_
FNDA:2,_RNCINvNtNtNtCskY3J53qhLT7_5oauth4core8services12role_service19delete_role_serviceNtCs5AxZ21aBbjQ_22role_service_unit_test16MockRoleProviderE0B1j_
FNDA:3,_RNCINvNtNtNtCskY3J53qhLT7_5oauth4core8services12role_service19update_role_serviceNtCs5AxZ21aBbjQ_22role_service_unit_test16MockRoleProviderE0B1j_
FNF:12
FNH:12
DA:11,2
DA:12,2
DA:13,2
DA:14,2
DA:15,2
DA:16,2
DA:18,2
DA:19,2
DA:20,2
DA:21,2
DA:22,2
DA:23,2
DA:24,2
DA:26,3
DA:27,3
DA:28,3
DA:29,3
DA:30,3
DA:31,3
DA:32,1
DA:33,2
DA:34,2
DA:35,3
DA:37,3
DA:38,3
DA:39,3
DA:40,3
DA:41,3
DA:42,3
DA:43,3
DA:44,1
DA:45,2
DA:46,2
DA:47,3
DA:49,2
DA:50,2
DA:51,2
DA:52,2
DA:53,2
DA:54,2
DA:55,2
DA:57,3
DA:58,3
DA:59,3
DA:60,3
DA:61,3
DA:62,3
DA:63,3
DA:64,1
DA:65,2
DA:66,2
DA:67,3
BRF:0
BRH:0
LF:58
LH:58
end_of_record
SF:/workspace/base/backend/oauth/src/core/services/user_service.rs
FN:12,_RINvNtNtNtCskY3J53qhLT7_5oauth4core8services12user_service19create_user_serviceNtNtNtNtB8_8adapters8keycloak16keycloak_adapter19KeycloakUserAdapterEB8_
FN:16,_RNCINvNtNtNtCskY3J53qhLT7_5oauth4core8services12user_service19create_user_serviceNtNtNtNtBa_8adapters8keycloak16keycloak_adapter19KeycloakUserAdapterE0Ba_
FN:23,_RINvNtNtNtCskY3J53qhLT7_5oauth4core8services12user_service17get_users_serviceNtNtNtNtB8_8adapters8keycloak16keycloak_adapter19KeycloakUserAdapterEB8_
FN:26,_RNCINvNtNtNtCskY3J53qhLT7_5oauth4core8services12user_service17get_users_serviceNtNtNtNtBa_8adapters8keycloak16keycloak_adapter19KeycloakUserAdapterE0Ba_
FN:30,_RINvNtNtNtCskY3J53qhLT7_5oauth4core8services12user_service16get_user_serviceNtNtNtNtB8_8adapters8keycloak16keycloak_adapter19KeycloakUserAdapterEB8_
FN:34,_RNCINvNtNtNtCskY3J53qhLT7_5oauth4core8services12user_service16get_user_serviceNtNtNtNtBa_8adapters8keycloak16keycloak_adapter19KeycloakUserAdapterE0Ba_
FN:38,_RINvNtNtNtCskY3J53qhLT7_5oauth4core8services12user_service19update_user_serviceNtNtNtNtB8_8adapters8keycloak16keycloak_adapter19KeycloakUserAdapterEB8_
FN:43,_RNCINvNtNtNtCskY3J53qhLT7_5oauth4core8services12user_service19update_user_serviceNtNtNtNtBa_8adapters8keycloak16keycloak_adapter19KeycloakUserAdapterE0Ba_
FN:50,_RINvNtNtNtCskY3J53qhLT7_5oauth4core8services12user_service23update_password_serviceNtNtNtNtB8_8adapters8keycloak16keycloak_adapter19KeycloakUserAdapterEB8_
FN:55,_RNCINvNtNtNtCskY3J53qhLT7_5oauth4core8services12user_service23update_password_serviceNtNtNtNtBa_8adapters8keycloak16keycloak_adapter19KeycloakUserAdapterE0Ba_
FN:62,_RINvNtNtNtCskY3J53qhLT7_5oauth4core8services12user_service19delete_user_serviceNtNtNtNtB8_8adapters8keycloak16keycloak_adapter19KeycloakUserAdapterEB8_
FN:66,_RNCINvNtNtNtCskY3J53qhLT7_5oauth4core8services12user_service19delete_user_serviceNtNtNtNtBa_8adapters8keycloak16keycloak_adapter19KeycloakUserAdapterE0Ba_
FN:70,_RINvNtNtNtCskY3J53qhLT7_5oauth4core8services12user_service24add_role_to_user_serviceNtNtNtNtB8_8adapters8keycloak16keycloak_adapter19KeycloakUserAdapterEB8_
FN:75,_RNCINvNtNtNtCskY3J53qhLT7_5oauth4core8services12user_service24add_role_to_user_serviceNtNtNtNtBa_8adapters8keycloak16keycloak_adapter19KeycloakUserAdapterE0Ba_
FN:82,_RINvNtNtNtCskY3J53qhLT7_5oauth4core8services12user_service29remove_role_from_user_serviceNtNtNtNtB8_8adapters8keycloak16keycloak_adapter19KeycloakUserAdapterEB8_
FN:87,_RNCINvNtNtNtCskY3J53qhLT7_5oauth4core8services12user_service29remove_role_from_user_serviceNtNtNtNtBa_8adapters8keycloak16keycloak_adapter19KeycloakUserAdapterE0Ba_
FN:12,_RINvNtNtNtCs16bWprmmhjH_5oauth4core8services12user_service19create_user_servicepEB8_
FN:16,_RNCINvNtNtNtCs16bWprmmhjH_5oauth4core8services12user_service19create_user_servicepE0Ba_
FN:23,_RINvNtNtNtCs16bWprmmhjH_5oauth4core8services12user_service17get_users_servicepEB8_
FN:26,_RNCINvNtNtNtCs16bWprmmhjH_5oauth4core8services12user_service17get_users_servicepE0Ba_
FN:30,_RINvNtNtNtCs16bWprmmhjH_5oauth4core8services12user_service16get_user_servicepEB8_
FN:34,_RNCINvNtNtNtCs16bWprmmhjH_5oauth4core8services12user_service16get_user_servicepE0Ba_
FN:38,_RINvNtNtNtCs16bWprmmhjH_5oauth4core8services12user_service19update_user_servicepEB8_
FN:43,_RNCINvNtNtNtCs16bWprmmhjH_5oauth4core8services12user_service19update_user_servicepE0Ba_
FN:50,_RINvNtNtNtCs16bWprmmhjH_5oauth4core8services12user_service23update_password_servicepEB8_
FN:55,_RNCINvNtNtNtCs16bWprmmhjH_5oauth4core8services12user_service23update_password_servicepE0Ba_
FN:62,_RINvNtNtNtCs16bWprmmhjH_5oauth4core8services12user_service19delete_user_servicepEB8_
FN:66,_RNCINvNtNtNtCs16bWprmmhjH_5oauth4core8services12user_service19delete_user_servicepE0Ba_
FN:70,_RINvNtNtNtCs16bWprmmhjH_5oauth4core8services12user_service24add_role_to_user_servicepEB8_
FN:75,_RNCINvNtNtNtCs16bWprmmhjH_5oauth4core8services12user_service24add_role_to_user_servicepE0Ba_
FN:82,_RINvNtNtNtCs16bWprmmhjH_5oauth4core8services12user_service29remove_role_from_user_servicepEB8_
FN:87,_RNCINvNtNtNtCs16bWprmmhjH_5oauth4core8services12user_service29remove_role_from_user_servicepE0Ba_
FN:30,_RINvNtNtNtCskY3J53qhLT7_5oauth4core8services12user_service16get_user_serviceNtCsmma1tOhJDT_22user_service_unit_test16MockUserProviderEB1e_
FN:23,_RINvNtNtNtCskY3J53qhLT7_5oauth4core8services12user_service17get_users_serviceNtCsmma1tOhJDT_22user_service_unit_test16MockUserProviderEB1f_
FN:12,_RINvNtNtNtCskY3J53qhLT7_5oauth4core8services12user_service19create_user_serviceNtCsmma1tOhJDT_22user_service_unit_test16MockUserProviderEB1h_
FN:62,_RINvNtNtNtCskY3J53qhLT7_5oauth4core8services12user_service19delete_user_serviceNtCsmma1tOhJDT_22user_service_unit_test16MockUserProviderEB1h_
FN:38,_RINvNtNtNtCskY3J53qhLT7_5oauth4core8services12user_service19update_user_serviceNtCsmma1tOhJDT_22user_service_unit_test16MockUserProviderEB1h_
FN:50,_RINvNtNtNtCskY3J53qhLT7_5oauth4core8services12user_service23update_password_serviceNtCsmma1tOhJDT_22user_service_unit_test16MockUserProviderEB1l_
FN:70,_RINvNtNtNtCskY3J53qhLT7_5oauth4core8services12user_service24add_role_to_user_serviceNtCsmma1tOhJDT_22user_service_unit_test16MockUserProviderEB1m_
FN:82,_RINvNtNtNtCskY3J53qhLT7_5oauth4core8services12user_service29remove_role_from_user_serviceNtCsmma1tOhJDT_22user_service_unit_test16MockUserProviderEB1r_
FN:34,_RNCINvNtNtNtCskY3J53qhLT7_5oauth4core8services12user_service16get_user_serviceNtCsmma1tOhJDT_22user_service_unit_test16MockUserProviderE0B1g_
FN:26,_RNCINvNtNtNtCskY3J53qhLT7_5oauth4core8services12user_service17get_users_serviceNtCsmma1tOhJDT_22user_service_unit_test16MockUserProviderE0B1h_
FN:16,_RNCINvNtNtNtCskY3J53qhLT7_5oauth4core8services12user_service19create_user_serviceNtCsmma1tOhJDT_22user_service_unit_test16MockUserProviderE0B1j_
FN:66,_RNCINvNtNtNtCskY3J53qhLT7_5oauth4core8services12user_service19delete_user_serviceNtCsmma1tOhJDT_22user_service_unit_test16MockUserProviderE0B1j_
FN:43,_RNCINvNtNtNtCskY3J53qhLT7_5oauth4core8services12user_service19update_user_serviceNtCsmma1tOhJDT_22user_service_unit_test16MockUserProviderE0B1j_
FN:55,_RNCINvNtNtNtCskY3J53qhLT7_5oauth4core8services12user_service23update_password_serviceNtCsmma1tOhJDT_22user_service_unit_test16MockUserProviderE0B1n_
FN:75,_RNCINvNtNtNtCskY3J53qhLT7_5oauth4core8services12user_service24add_role_to_user_serviceNtCsmma1tOhJDT_22user_service_unit_test16MockUserProviderE0B1o_
FN:87,_RNCINvNtNtNtCskY3J53qhLT7_5oauth4core8services12user_service29remove_role_from_user_serviceNtCsmma1tOhJDT_22user_service_unit_test16MockUserProviderE0B1t_
FNDA:0,_RINvNtNtNtCskY3J53qhLT7_5oauth4core8services12user_service19create_user_serviceNtNtNtNtB8_8adapters8keycloak16keycloak_adapter19KeycloakUserAdapterEB8_
FNDA:0,_RNCINvNtNtNtCskY3J53qhLT7_5oauth4core8services12user_service19create_user_serviceNtNtNtNtBa_8adapters8keycloak16keycloak_adapter19KeycloakUserAdapterE0Ba_
FNDA:0,_RINvNtNtNtCskY3J53qhLT7_5oauth4core8services12user_service17get_users_serviceNtNtNtNtB8_8adapters8keycloak16keycloak_adapter19KeycloakUserAdapterEB8_
FNDA:0,_RNCINvNtNtNtCskY3J53qhLT7_5oauth4core8services12user_service17get_users_serviceNtNtNtNtBa_8adapters8keycloak16keycloak_adapter19KeycloakUserAdapterE0Ba_
FNDA:0,_RINvNtNtNtCskY3J53qhLT7_5oauth4core8services12user_service16get_user_serviceNtNtNtNtB8_8adapters8keycloak16keycloak_adapter19KeycloakUserAdapterEB8_
FNDA:0,_RNCINvNtNtNtCskY3J53qhLT7_5oauth4core8services12user_service16get_user_serviceNtNtNtNtBa_8adapters8keycloak16keycloak_adapter19KeycloakUserAdapterE0Ba_
FNDA:0,_RINvNtNtNtCskY3J53qhLT7_5oauth4core8services12user_service19update_user_serviceNtNtNtNtB8_8adapters8keycloak16keycloak_adapter19KeycloakUserAdapterEB8_
FNDA:0,_RNCINvNtNtNtCskY3J53qhLT7_5oauth4core8services12user_service19update_user_serviceNtNtNtNtBa_8adapters8keycloak16keycloak_adapter19KeycloakUserAdapterE0Ba_
FNDA:0,_RINvNtNtNtCskY3J53qhLT7_5oauth4core8services12user_service23update_password_serviceNtNtNtNtB8_8adapters8keycloak16keycloak_adapter19KeycloakUserAdapterEB8_
FNDA:0,_RNCINvNtNtNtCskY3J53qhLT7_5oauth4core8services12user_service23update_password_serviceNtNtNtNtBa_8adapters8keycloak16keycloak_adapter19KeycloakUserAdapterE0Ba_
FNDA:0,_RINvNtNtNtCskY3J53qhLT7_5oauth4core8services12user_service19delete_user_serviceNtNtNtNtB8_8adapters8keycloak16keycloak_adapter19KeycloakUserAdapterEB8_
FNDA:0,_RNCINvNtNtNtCskY3J53qhLT7_5oauth4core8services12user_service19delete_user_serviceNtNtNtNtBa_8adapters8keycloak16keycloak_adapter19KeycloakUserAdapterE0Ba_
FNDA:0,_RINvNtNtNtCskY3J53qhLT7_5oauth4core8services12user_service24add_role_to_user_serviceNtNtNtNtB8_8adapters8keycloak16keycloak_adapter19KeycloakUserAdapterEB8_
FNDA:0,_RNCINvNtNtNtCskY3J53qhLT7_5oauth4core8services12user_service24add_role_to_user_serviceNtNtNtNtBa_8adapters8keycloak16keycloak_adapter19KeycloakUserAdapterE0Ba_
FNDA:0,_RINvNtNtNtCskY3J53qhLT7_5oauth4core8services12user_service29remove_role_from_user_serviceNtNtNtNtB8_8adapters8keycloak16keycloak_adapter19KeycloakUserAdapterEB8_
FNDA:0,_RNCINvNtNtNtCskY3J53qhLT7_5oauth4core8services12user_service29remove_role_from_user_serviceNtNtNtNtBa_8adapters8keycloak16keycloak_adapter19KeycloakUserAdapterE0Ba_
FNDA:0,_RINvNtNtNtCs16bWprmmhjH_5oauth4core8services12user_service19create_user_servicepEB8_
FNDA:0,_RNCINvNtNtNtCs16bWprmmhjH_5oauth4core8services12user_service19create_user_servicepE0Ba_
FNDA:0,_RINvNtNtNtCs16bWprmmhjH_5oauth4core8services12user_service17get_users_servicepEB8_
FNDA:0,_RNCINvNtNtNtCs16bWprmmhjH_5oauth4core8services12user_service17get_users_servicepE0Ba_
FNDA:0,_RINvNtNtNtCs16bWprmmhjH_5oauth4core8services12user_service16get_user_servicepEB8_
FNDA:0,_RNCINvNtNtNtCs16bWprmmhjH_5oauth4core8services12user_service16get_user_servicepE0Ba_
FNDA:0,_RINvNtNtNtCs16bWprmmhjH_5oauth4core8services12user_service19update_user_servicepEB8_
FNDA:0,_RNCINvNtNtNtCs16bWprmmhjH_5oauth4core8services12user_service19update_user_servicepE0Ba_
FNDA:0,_RINvNtNtNtCs16bWprmmhjH_5oauth4core8services12user_service23update_password_servicepEB8_
FNDA:0,_RNCINvNtNtNtCs16bWprmmhjH_5oauth4core8services12user_service23update_password_servicepE0Ba_
FNDA:0,_RINvNtNtNtCs16bWprmmhjH_5oauth4core8services12user_service19delete_user_servicepEB8_
FNDA:0,_RNCINvNtNtNtCs16bWprmmhjH_5oauth4core8services12user_service19delete_user_servicepE0Ba_
FNDA:0,_RINvNtNtNtCs16bWprmmhjH_5oauth4core8services12user_service24add_role_to_user_servicepEB8_
FNDA:0,_RNCINvNtNtNtCs16bWprmmhjH_5oauth4core8services12user_service24add_role_to_user_servicepE0Ba_
FNDA:0,_RINvNtNtNtCs16bWprmmhjH_5oauth4core8services12user_service29remove_role_from_user_servicepEB8_
FNDA:0,_RNCINvNtNtNtCs16bWprmmhjH_5oauth4core8services12user_service29remove_role_from_user_servicepE0Ba_
FNDA:2,_RINvNtNtNtCskY3J53qhLT7_5oauth4core8services12user_service16get_user_serviceNtCsmma1tOhJDT_22user_service_unit_test16MockUserProviderEB1e_
FNDA:2,_RINvNtNtNtCskY3J53qhLT7_5oauth4core8services12user_service17get_users_serviceNtCsmma1tOhJDT_22user_service_unit_test16MockUserProviderEB1f_
FNDA:3,_RINvNtNtNtCskY3J53qhLT7_5oauth4core8services12user_service19create_user_serviceNtCsmma1tOhJDT_22user_service_unit_test16MockUserProviderEB1h_
FNDA:2,_RINvNtNtNtCskY3J53qhLT7_5oauth4core8services12user_service19delete_user_serviceNtCsmma1tOhJDT_22user_service_unit_test16MockUserProviderEB1h_
FNDA:3,_RINvNtNtNtCskY3J53qhLT7_5oauth4core8services12user_service19update_user_serviceNtCsmma1tOhJDT_22user_service_unit_test16MockUserProviderEB1h_
FNDA:3,_RINvNtNtNtCskY3J53qhLT7_5oauth4core8services12user_service23update_password_serviceNtCsmma1tOhJDT_22user_service_unit_test16MockUserProviderEB1l_
FNDA:3,_RINvNtNtNtCskY3J53qhLT7_5oauth4core8services12user_service24add_role_to_user_serviceNtCsmma1tOhJDT_22user_service_unit_test16MockUserProviderEB1m_
FNDA:2,_RINvNtNtNtCskY3J53qhLT7_5oauth4core8services12user_service29remove_role_from_user_serviceNtCsmma1tOhJDT_22user_service_unit_test16MockUserProviderEB1r_
FNDA:2,_RNCINvNtNtNtCskY3J53qhLT7_5oauth4core8services12user_service16get_user_serviceNtCsmma1tOhJDT_22user_service_unit_test16MockUserProviderE0B1g_
FNDA:2,_RNCINvNtNtNtCskY3J53qhLT7_5oauth4core8services12user_service17get_users_serviceNtCsmma1tOhJDT_22user_service_unit_test16MockUserProviderE0B1h_
FNDA:3,_RNCINvNtNtNtCskY3J53qhLT7_5oauth4core8services12user_service19create_user_serviceNtCsmma1tOhJDT_22user_service_unit_test16MockUserProviderE0B1j_
FNDA:2,_RNCINvNtNtNtCskY3J53qhLT7_5oauth4core8services12user_service19delete_user_serviceNtCsmma1tOhJDT_22user_service_unit_test16MockUserProviderE0B1j_
FNDA:3,_RNCINvNtNtNtCskY3J53qhLT7_5oauth4core8services12user_service19update_user_serviceNtCsmma1tOhJDT_22user_service_unit_test16MockUserProviderE0B1j_
FNDA:3,_RNCINvNtNtNtCskY3J53qhLT7_5oauth4core8services12user_service23update_password_serviceNtCsmma1tOhJDT_22user_service_unit_test16MockUserProviderE0B1n_
FNDA:3,_RNCINvNtNtNtCskY3J53qhLT7_5oauth4core8services12user_service24add_role_to_user_serviceNtCsmma1tOhJDT_22user_service_unit_test16MockUserProviderE0B1o_
FNDA:2,_RNCINvNtNtNtCskY3J53qhLT7_5oauth4core8services12user_service29remove_role_from_user_serviceNtCsmma1tOhJDT_22user_service_unit_test16MockUserProviderE0B1t_
FNF:16
FNH:16
DA:12,3
DA:13,3
DA:14,3
DA:15,3
DA:16,3
DA:17,3
DA:18,1
DA:19,2
DA:20,2
DA:21,3
DA:23,2
DA:24,2
DA:25,2
DA:26,2
DA:27,2
DA:28,2
DA:30,2
DA:31,2
DA:32,2
DA:33,2
DA:34,2
DA:35,2
DA:36,2
DA:38,3
DA:39,3
DA:40,3
DA:41,3
DA:42,3
DA:43,3
DA:44,3
DA:45,1
DA:46,2
DA:47,2
DA:48,3
DA:50,3
DA:51,3
DA:52,3
DA:53,3
DA:54,3
DA:55,3
DA:56,3
DA:57,1
DA:58,2
DA:59,2
DA:60,3
DA:62,2
DA:63,2
DA:64,2
DA:65,2
DA:66,2
DA:67,2
DA:68,2
DA:70,3
DA:71,3
DA:72,3
DA:73,3
DA:74,3
DA:75,3
DA:76,3
DA:77,1
DA:78,2
DA:79,2
DA:80,3
DA:82,2
DA:83,2
DA:84,2
DA:85,2
DA:86,2
DA:87,2
DA:88,2
DA:89,2
BRF:0
BRH:0
LF:79
LH:79
end_of_record
SF:/workspace/base/backend/oauth/src/core/validators/create_role_validator.rs
FN:3,_RNvNtNtNtCskY3J53qhLT7_5oauth4core10validators21create_role_validator20validate_create_role
FN:3,_RNvNtNtNtCs16bWprmmhjH_5oauth4core10validators21create_role_validator20validate_create_role
FNDA:4,_RNvNtNtNtCskY3J53qhLT7_5oauth4core10validators21create_role_validator20validate_create_role
FNDA:0,_RNvNtNtNtCs16bWprmmhjH_5oauth4core10validators21create_role_validator20validate_create_role
FNF:1
FNH:1
DA:3,4
DA:4,4
DA:5,4
DA:6,1
DA:7,3
DA:8,4
DA:9,1
DA:10,3
DA:11,4
DA:12,2
DA:14,2
DA:16,4
BRF:0
BRH:0
LF:12
LH:12
end_of_record
SF:/workspace/base/backend/oauth/src/core/validators/create_user_validator.rs
FN:4,_RNvNtNtNtCskY3J53qhLT7_5oauth4core10validators21create_user_validator20validate_create_user
FN:4,_RNvNtNtNtCs16bWprmmhjH_5oauth4core10validators21create_user_validator20validate_create_user
FNDA:4,_RNvNtNtNtCskY3J53qhLT7_5oauth4core10validators21create_user_validator20validate_create_user
FNDA:0,_RNvNtNtNtCs16bWprmmhjH_5oauth4core10validators21create_user_validator20validate_create_user
FNF:1
FNH:1
DA:4,4
DA:5,4
DA:6,4
DA:7,4
DA:8,1
DA:9,1
DA:10,3
DA:11,3
DA:12,1
DA:13,2
DA:16,4
DA:17,1
DA:18,3
DA:20,4
DA:21,1
DA:22,3
DA:24,4
DA:25,1
DA:26,3
DA:28,4
DA:29,2
DA:31,2
DA:33,4
BRF:0
BRH:0
LF:23
LH:23
end_of_record
SF:/workspace/base/backend/oauth/src/core/validators/login_validator.rs
FN:4,_RNvNtNtNtCskY3J53qhLT7_5oauth4core10validators15login_validator14validate_login
FN:4,_RNvNtNtNtCs16bWprmmhjH_5oauth4core10validators15login_validator14validate_login
FNDA:7,_RNvNtNtNtCskY3J53qhLT7_5oauth4core10validators15login_validator14validate_login
FNDA:0,_RNvNtNtNtCs16bWprmmhjH_5oauth4core10validators15login_validator14validate_login
FNF:1
FNH:1
DA:4,7
DA:5,7
DA:6,7
DA:7,7
DA:8,3
DA:9,3
DA:10,4
DA:11,4
DA:12,4
DA:13,4
DA:14,2
DA:15,2
DA:18,7
DA:19,3
DA:20,4
DA:22,7
DA:23,2
DA:25,5
DA:27,7
BRF:0
BRH:0
LF:19
LH:19
end_of_record
SF:/workspace/base/backend/oauth/src/core/validators/patch_role_validator.rs
FN:6,_RNCNvNtNtNtCskY3J53qhLT7_5oauth4core10validators20patch_role_validator28validate_update_role_partial0B9_
FN:9,_RNCNvNtNtNtCskY3J53qhLT7_5oauth4core10validators20patch_role_validator28validate_update_role_partials_0B9_
FN:3,_RNvNtNtNtCskY3J53qhLT7_5oauth4core10validators20patch_role_validator28validate_update_role_partial
FN:3,_RNvNtNtNtCs16bWprmmhjH_5oauth4core10validators20patch_role_validator28validate_update_role_partial
FN:6,_RNCNvNtNtNtCs16bWprmmhjH_5oauth4core10validators20patch_role_validator28validate_update_role_partial0B9_
FN:9,_RNCNvNtNtNtCs16bWprmmhjH_5oauth4core10validators20patch_role_validator28validate_update_role_partials_0B9_
FNDA:4,_RNCNvNtNtNtCskY3J53qhLT7_5oauth4core10validators20patch_role_validator28validate_update_role_partial0B9_
FNDA:1,_RNCNvNtNtNtCskY3J53qhLT7_5oauth4core10validators20patch_role_validator28validate_update_role_partials_0B9_
FNDA:5,_RNvNtNtNtCskY3J53qhLT7_5oauth4core10validators20patch_role_validator28validate_update_role_partial
FNDA:0,_RNvNtNtNtCs16bWprmmhjH_5oauth4core10validators20patch_role_validator28validate_update_role_partial
FNDA:0,_RNCNvNtNtNtCs16bWprmmhjH_5oauth4core10validators20patch_role_validator28validate_update_role_partial0B9_
FNDA:0,_RNCNvNtNtNtCs16bWprmmhjH_5oauth4core10validators20patch_role_validator28validate_update_role_partials_0B9_
FNF:3
FNH:3
DA:3,5
DA:4,5
DA:5,5
DA:6,5
DA:7,1
DA:8,4
DA:9,5
DA:10,1
DA:11,4
DA:12,5
DA:13,1
DA:14,1
DA:15,1
DA:16,1
DA:17,1
DA:18,1
DA:19,4
DA:21,5
DA:22,5
BRF:0
BRH:0
LF:21
LH:21
end_of_record
SF:/workspace/base/backend/oauth/src/core/validators/update_password_validator.rs
FN:1,_RNvNtNtNtCskY3J53qhLT7_5oauth4core10validators25update_password_validator24validate_update_password
FN:1,_RNvNtNtNtCs16bWprmmhjH_5oauth4core10validators25update_password_validator24validate_update_password
FNDA:3,_RNvNtNtNtCskY3J53qhLT7_5oauth4core10validators25update_password_validator24validate_update_password
FNDA:0,_RNvNtNtNtCs16bWprmmhjH_5oauth4core10validators25update_password_validator24validate_update_password
FNF:1
FNH:1
DA:1,3
DA:2,3
DA:3,3
DA:4,1
DA:5,2
DA:6,3
DA:7,2
DA:9,1
DA:11,3
BRF:0
BRH:0
LF:9
LH:9
end_of_record
SF:/workspace/base/backend/oauth/src/core/validators/update_role_validator.rs
FN:3,_RNvNtNtNtCskY3J53qhLT7_5oauth4core10validators21update_role_validator20validate_update_role
FN:3,_RNvNtNtNtCs16bWprmmhjH_5oauth4core10validators21update_role_validator20validate_update_role
FNDA:4,_RNvNtNtNtCskY3J53qhLT7_5oauth4core10validators21update_role_validator20validate_update_role
FNDA:0,_RNvNtNtNtCs16bWprmmhjH_5oauth4core10validators21update_role_validator20validate_update_role
FNF:1
FNH:1
DA:3,4
DA:4,4
DA:5,4
DA:6,1
DA:7,3
DA:8,4
DA:9,1
DA:10,3
DA:11,4
DA:12,2
DA:14,2
DA:16,4
BRF:0
BRH:0
LF:12
LH:12
end_of_record
SF:/workspace/base/backend/oauth/src/core/validators/update_user_validator.rs
FN:4,_RNvNtNtNtCskY3J53qhLT7_5oauth4core10validators21update_user_validator20validate_update_user
FN:4,_RNvNtNtNtCs16bWprmmhjH_5oauth4core10validators21update_user_validator20validate_update_user
FNDA:3,_RNvNtNtNtCskY3J53qhLT7_5oauth4core10validators21update_user_validator20validate_update_user
FNDA:0,_RNvNtNtNtCs16bWprmmhjH_5oauth4core10validators21update_user_validator20validate_update_user
FNF:1
FNH:1
DA:4,3
DA:5,3
DA:7,3
DA:8,3
DA:9,1
DA:10,2
DA:11,3
DA:12,3
DA:13,1
DA:14,2
DA:15,0
DA:17,3
DA:18,3
DA:19,1
DA:20,2
DA:21,0
DA:23,3
DA:24,3
DA:25,1
DA:26,2
DA:27,0
DA:29,3
DA:30,2
DA:32,1
DA:34,3
BRF:0
BRH:0
LF:25
LH:22
end_of_record
SF:/workspace/base/backend/oauth/src/lib.rs
FN:6,_RNvXCskY3J53qhLT7_5oauthNtB2_5helloNtNtCsb9zwYTRy8hm_9actix_web7service18HttpServiceFactory8register
FN:7,_RNvNvXCskY3J53qhLT7_5oauthNtB4_5helloNtNtCsb9zwYTRy8hm_9actix_web7service18HttpServiceFactory8register5hello
FN:7,_RNCNvNvXCskY3J53qhLT7_5oauthNtB6_5helloNtNtCsb9zwYTRy8hm_9actix_web7service18HttpServiceFactory8register5hello0B6_
FN:6,_RNvXCs16bWprmmhjH_5oauthNtB2_5helloNtNtCsb9zwYTRy8hm_9actix_web7service18HttpServiceFactory8register
FN:7,_RNvNvXCs16bWprmmhjH_5oauthNtB4_5helloNtNtCsb9zwYTRy8hm_9actix_web7service18HttpServiceFactory8register5hello
FN:7,_RNCNvNvXCs16bWprmmhjH_5oauthNtB6_5helloNtNtCsb9zwYTRy8hm_9actix_web7service18HttpServiceFactory8register5hello0B6_
FNDA:0,_RNvXCskY3J53qhLT7_5oauthNtB2_5helloNtNtCsb9zwYTRy8hm_9actix_web7service18HttpServiceFactory8register
FNDA:0,_RNvNvXCskY3J53qhLT7_5oauthNtB4_5helloNtNtCsb9zwYTRy8hm_9actix_web7service18HttpServiceFactory8register5hello
FNDA:0,_RNCNvNvXCskY3J53qhLT7_5oauthNtB6_5helloNtNtCsb9zwYTRy8hm_9actix_web7service18HttpServiceFactory8register5hello0B6_
FNDA:0,_RNvXCs16bWprmmhjH_5oauthNtB2_5helloNtNtCsb9zwYTRy8hm_9actix_web7service18HttpServiceFactory8register
FNDA:0,_RNvNvXCs16bWprmmhjH_5oauthNtB4_5helloNtNtCsb9zwYTRy8hm_9actix_web7service18HttpServiceFactory8register5hello
FNDA:0,_RNCNvNvXCs16bWprmmhjH_5oauthNtB6_5helloNtNtCsb9zwYTRy8hm_9actix_web7service18HttpServiceFactory8register5hello0B6_
FNF:3
FNH:0
DA:6,0
DA:7,0
DA:8,0
DA:9,0
BRF:0
BRH:0
LF:5
LH:0
end_of_record
SF:/workspace/base/backend/oauth/src/main.rs
FN:40,_RNvXCs523RQYff1ih_5oauthNtB2_13SecurityAddonNtCs7uGmPRfeiaR_6utoipa6Modify6modify
FN:55,_RNvXs_Cs523RQYff1ih_5oauthNtB4_6ApiDocNtCs7uGmPRfeiaR_6utoipa7OpenApi7openapi
FN:55,_RNvXNvXs_Cs523RQYff1ih_5oauthNtB7_6ApiDocNtCs7uGmPRfeiaR_6utoipa7OpenApi7openapiNtB2_73oauth_adapters_web_controllers_general_controller_login_controller_configNtNtBF_5___dev10PathConfig4path
FN:55,_RNvXNvXs_Cs523RQYff1ih_5oauthNtB7_6ApiDocNtCs7uGmPRfeiaR_6utoipa7OpenApi7openapiNtB2_73oauth_adapters_web_controllers_general_controller_login_controller_configNtNtBF_5___dev10PathConfig7methods
FN:55,_RNvXNvXs_Cs523RQYff1ih_5oauthNtB7_6ApiDocNtCs7uGmPRfeiaR_6utoipa7OpenApi7openapiNtB2_73oauth_adapters_web_controllers_general_controller_login_controller_configNtNtBF_5___dev10PathConfig18tags_and_operation
FN:55,_RNvXs_NvXs_Cs523RQYff1ih_5oauthNtB9_6ApiDocNtCs7uGmPRfeiaR_6utoipa7OpenApi7openapiNtB4_76oauth_adapters_web_controllers_user_controller_create_user_controller_configNtNtBH_5___dev10PathConfig4path
FN:55,_RNvXs_NvXs_Cs523RQYff1ih_5oauthNtB9_6ApiDocNtCs7uGmPRfeiaR_6utoipa7OpenApi7openapiNtB4_76oauth_adapters_web_controllers_user_controller_create_user_controller_configNtNtBH_5___dev10PathConfig7methods
FN:55,_RNvXs_NvXs_Cs523RQYff1ih_5oauthNtB9_6ApiDocNtCs7uGmPRfeiaR_6utoipa7OpenApi7openapiNtB4_76oauth_adapters_web_controllers_user_controller_create_user_controller_configNtNtBH_5___dev10PathConfig18tags_and_operation
FN:55,_RNvXs0_NvXs_Cs523RQYff1ih_5oauthNtBa_6ApiDocNtCs7uGmPRfeiaR_6utoipa7OpenApi7openapiNtB5_74oauth_adapters_web_controllers_user_controller_get_users_controller_configNtNtBI_5___dev10PathConfig4path
FN:55,_RNvXs0_NvXs_Cs523RQYff1ih_5oauthNtBa_6ApiDocNtCs7uGmPRfeiaR_6utoipa7OpenApi7openapiNtB5_74oauth_adapters_web_controllers_user_controller_get_users_controller_configNtNtBI_5___dev10PathConfig7methods
FN:55,_RNvXs0_NvXs_Cs523RQYff1ih_5oauthNtBa_6ApiDocNtCs7uGmPRfeiaR_6utoipa7OpenApi7openapiNtB5_74oauth_adapters_web_controllers_user_controller_get_users_controller_configNtNtBI_5___dev10PathConfig18tags_and_operation
FN:55,_RNvXs1_NvXs_Cs523RQYff1ih_5oauthNtBa_6ApiDocNtCs7uGmPRfeiaR_6utoipa7OpenApi7openapiNtB5_73oauth_adapters_web_controllers_user_controller_get_user_controller_configNtNtBI_5___dev10PathConfig4path
FN:55,_RNvXs1_NvXs_Cs523RQYff1ih_5oauthNtBa_6ApiDocNtCs7uGmPRfeiaR_6utoipa7OpenApi7openapiNtB5_73oauth_adapters_web_controllers_user_controller_get_user_controller_configNtNtBI_5___dev10PathConfig7methods
FN:55,_RNvXs1_NvXs_Cs523RQYff1ih_5oauthNtBa_6ApiDocNtCs7uGmPRfeiaR_6utoipa7OpenApi7openapiNtB5_73oauth_adapters_web_controllers_user_controller_get_user_controller_configNtNtBI_5___dev10PathConfig18tags_and_operation
FN:55,_RNvXs2_NvXs_Cs523RQYff1ih_5oauthNtBa_6ApiDocNtCs7uGmPRfeiaR_6utoipa7OpenApi7openapiNtB5_76oauth_adapters_web_controllers_user_controller_update_user_controller_configNtNtBI_5___dev10PathConfig4path
FN:55,_RNvXs2_NvXs_Cs523RQYff1ih_5oauthNtBa_6ApiDocNtCs7uGmPRfeiaR_6utoipa7OpenApi7openapiNtB5_76oauth_adapters_web_controllers_user_controller_update_user_controller_configNtNtBI_5___dev10PathConfig7methods
FN:55,_RNvXs2_NvXs_Cs523RQYff1ih_5oauthNtBa_6ApiDocNtCs7uGmPRfeiaR_6utoipa7OpenApi7openapiNtB5_76oauth_adapters_web_controllers_user_controller_update_user_controller_configNtNtBI_5___dev10PathConfig18tags_and_operation
FN:55,_RNvXs3_NvXs_Cs523RQYff1ih_5oauthNtBa_6ApiDocNtCs7uGmPRfeiaR_6utoipa7OpenApi7openapiNtB5_80oauth_adapters_web_controllers_user_controller_update_password_controller_configNtNtBI_5___dev10PathConfig4path
FN:55,_RNvXs3_NvXs_Cs523RQYff1ih_5oauthNtBa_6ApiDocNtCs7uGmPRfeiaR_6utoipa7OpenApi7openapiNtB5_80oauth_adapters_web_controllers_user_controller_update_password_controller_configNtNtBI_5___dev10PathConfig7methods
FN:55,_RNvXs3_NvXs_Cs523RQYff1ih_5oauthNtBa_6ApiDocNtCs7uGmPRfeiaR_6utoipa7OpenApi7openapiNtB5_80oauth_adapters_web_controllers_user_controller_update_password_controller_configNtNtBI_5___dev10PathConfig18tags_and_operation
FN:55,_RNvXs4_NvXs_Cs523RQYff1ih_5oauthNtBa_6ApiDocNtCs7uGmPRfeiaR_6utoipa7OpenApi7openapiNtB5_76oauth_adapters_web_controllers_user_controller_delete_user_controller_configNtNtBI_5___dev10PathConfig4path
FN:55,_RNvXs4_NvXs_Cs523RQYff1ih_5oauthNtBa_6ApiDocNtCs7uGmPRfeiaR_6utoipa7OpenApi7openapiNtB5_76oauth_adapters_web_controllers_user_controller_delete_user_controller_configNtNtBI_5___dev10PathConfig7methods
FN:55,_RNvXs4_NvXs_Cs523RQYff1ih_5oauthNtBa_6ApiDocNtCs7uGmPRfeiaR_6utoipa7OpenApi7openapiNtB5_76oauth_adapters_web_controllers_user_controller_delete_user_controller_configNtNtBI_5___dev10PathConfig18tags_and_operation
FN:55,_RNvXs5_NvXs_Cs523RQYff1ih_5oauthNtBa_6ApiDocNtCs7uGmPRfeiaR_6utoipa7OpenApi7openapiNtB5_81oauth_adapters_web_controllers_user_controller_add_role_to_user_controller_configNtNtBI_5___dev10PathConfig4path
FN:55,_RNvXs5_NvXs_Cs523RQYff1ih_5oauthNtBa_6ApiDocNtCs7uGmPRfeiaR_6utoipa7OpenApi7openapiNtB5_81oauth_adapters_web_controllers_user_controller_add_role_to_user_controller_configNtNtBI_5___dev10PathConfig7methods
FN:55,_RNvXs5_NvXs_Cs523RQYff1ih_5oauthNtBa_6ApiDocNtCs7uGmPRfeiaR_6utoipa7OpenApi7openapiNtB5_81oauth_adapters_web_controllers_user_controller_add_role_to_user_controller_configNtNtBI_5___dev10PathConfig18tags_and_operation
FN:55,_RNvXs6_NvXs_Cs523RQYff1ih_5oauthNtBa_6ApiDocNtCs7uGmPRfeiaR_6utoipa7OpenApi7openapiNtB5_86oauth_adapters_web_controllers_user_controller_remove_role_from_user_controller_configNtNtBI_5___dev10PathConfig4path
FN:55,_RNvXs6_NvXs_Cs523RQYff1ih_5oauthNtBa_6ApiDocNtCs7uGmPRfeiaR_6utoipa7OpenApi7openapiNtB5_86oauth_adapters_web_controllers_user_controller_remove_role_from_user_controller_configNtNtBI_5___dev10PathConfig7methods
FN:55,_RNvXs6_NvXs_Cs523RQYff1ih_5oauthNtBa_6ApiDocNtCs7uGmPRfeiaR_6utoipa7OpenApi7openapiNtB5_86oauth_adapters_web_controllers_user_controller_remove_role_from_user_controller_configNtNtBI_5___dev10PathConfig18tags_and_operation
FN:55,_RNvXs7_NvXs_Cs523RQYff1ih_5oauthNtBa_6ApiDocNtCs7uGmPRfeiaR_6utoipa7OpenApi7openapiNtB5_76oauth_adapters_web_controllers_role_controller_create_role_controller_configNtNtBI_5___dev10PathConfig4path
FN:55,_RNvXs7_NvXs_Cs523RQYff1ih_5oauthNtBa_6ApiDocNtCs7uGmPRfeiaR_6utoipa7OpenApi7openapiNtB5_76oauth_adapters_web_controllers_role_controller_create_role_controller_configNtNtBI_5___dev10PathConfig7methods
FN:55,_RNvXs7_NvXs_Cs523RQYff1ih_5oauthNtBa_6ApiDocNtCs7uGmPRfeiaR_6utoipa7OpenApi7openapiNtB5_76oauth_adapters_web_controllers_role_controller_create_role_controller_configNtNtBI_5___dev10PathConfig18tags_and_operation
FN:55,_RNvXs8_NvXs_Cs523RQYff1ih_5oauthNtBa_6ApiDocNtCs7uGmPRfeiaR_6utoipa7OpenApi7openapiNtB5_74oauth_adapters_web_controllers_role_controller_get_roles_controller_configNtNtBI_5___dev10PathConfig4path
FN:55,_RNvXs8_NvXs_Cs523RQYff1ih_5oauthNtBa_6ApiDocNtCs7uGmPRfeiaR_6utoipa7OpenApi7openapiNtB5_74oauth_adapters_web_controllers_role_controller_get_roles_controller_configNtNtBI_5___dev10PathConfig7methods
FN:55,_RNvXs8_NvXs_Cs523RQYff1ih_5oauthNtBa_6ApiDocNtCs7uGmPRfeiaR_6utoipa7OpenApi7openapiNtB5_74oauth_adapters_web_controllers_role_controller_get_roles_controller_configNtNtBI_5___dev10PathConfig18tags_and_operation
FN:55,_RNvXs9_NvXs_Cs523RQYff1ih_5oauthNtBa_6ApiDocNtCs7uGmPRfeiaR_6utoipa7OpenApi7openapiNtB5_73oauth_adapters_web_controllers_role_controller_get_role_controller_configNtNtBI_5___dev10PathConfig4path
FN:55,_RNvXs9_NvXs_Cs523RQYff1ih_5oauthNtBa_6ApiDocNtCs7uGmPRfeiaR_6utoipa7OpenApi7openapiNtB5_73oauth_adapters_web_controllers_role_controller_get_role_controller_configNtNtBI_5___dev10PathConfig7methods
FN:55,_RNvXs9_NvXs_Cs523RQYff1ih_5oauthNtBa_6ApiDocNtCs7uGmPRfeiaR_6utoipa7OpenApi7openapiNtB5_73oauth_adapters_web_controllers_role_controller_get_role_controller_configNtNtBI_5___dev10PathConfig18tags_and_operation
FN:55,_RNvXsa_NvXs_Cs523RQYff1ih_5oauthNtBa_6ApiDocNtCs7uGmPRfeiaR_6utoipa7OpenApi7openapiNtB5_76oauth_adapters_web_controllers_role_controller_update_role_controller_configNtNtBI_5___dev10PathConfig4path
FN:55,_RNvXsa_NvXs_Cs523RQYff1ih_5oauthNtBa_6ApiDocNtCs7uGmPRfeiaR_6utoipa7OpenApi7openapiNtB5_76oauth_adapters_web_controllers_role_controller_update_role_controller_configNtNtBI_5___dev10PathConfig7methods
FN:55,_RNvXsa_NvXs_Cs523RQYff1ih_5oauthNtBa_6ApiDocNtCs7uGmPRfeiaR_6utoipa7OpenApi7openapiNtB5_76oauth_adapters_web_controllers_role_controller_update_role_controller_configNtNtBI_5___dev10PathConfig18tags_and_operation
FN:55,_RNvXsb_NvXs_Cs523RQYff1ih_5oauthNtBa_6ApiDocNtCs7uGmPRfeiaR_6utoipa7OpenApi7openapiNtB5_75oauth_adapters_web_controllers_role_controller_patch_role_controller_configNtNtBI_5___dev10PathConfig4path
FN:55,_RNvXsb_NvXs_Cs523RQYff1ih_5oauthNtBa_6ApiDocNtCs7uGmPRfeiaR_6utoipa7OpenApi7openapiNtB5_75oauth_adapters_web_controllers_role_controller_patch_role_controller_configNtNtBI_5___dev10PathConfig7methods
FN:55,_RNvXsb_NvXs_Cs523RQYff1ih_5oauthNtBa_6ApiDocNtCs7uGmPRfeiaR_6utoipa7OpenApi7openapiNtB5_75oauth_adapters_web_controllers_role_controller_patch_role_controller_configNtNtBI_5___dev10PathConfig18tags_and_operation
FN:55,_RNvXsc_NvXs_Cs523RQYff1ih_5oauthNtBa_6ApiDocNtCs7uGmPRfeiaR_6utoipa7OpenApi7openapiNtB5_76oauth_adapters_web_controllers_role_controller_delete_role_controller_configNtNtBI_5___dev10PathConfig4path
FN:55,_RNvXsc_NvXs_Cs523RQYff1ih_5oauthNtBa_6ApiDocNtCs7uGmPRfeiaR_6utoipa7OpenApi7openapiNtB5_76oauth_adapters_web_controllers_role_controller_delete_role_controller_configNtNtBI_5___dev10PathConfig7methods
FN:55,_RNvXsc_NvXs_Cs523RQYff1ih_5oauthNtBa_6ApiDocNtCs7uGmPRfeiaR_6utoipa7OpenApi7openapiNtB5_76oauth_adapters_web_controllers_role_controller_delete_role_controller_configNtNtBI_5___dev10PathConfig18tags_and_operation
FN:55,_RNCNvXs_Cs523RQYff1ih_5oauthNtB6_6ApiDocNtCs7uGmPRfeiaR_6utoipa7OpenApi7openapi0B6_
FN:101,_RNvCs523RQYff1ih_5oauth4main
FN:101,_RNCNvCs523RQYff1ih_5oauth4main0B3_
FN:111,_RNCNCNvCs523RQYff1ih_5oauth4main00B5_
FN:40,_RNvXCsbcqkHOmXg85_5oauthNtB2_13SecurityAddonNtCs7uGmPRfeiaR_6utoipa6Modify6modify
FN:55,_RNvXs_CsbcqkHOmXg85_5oauthNtB4_6ApiDocNtCs7uGmPRfeiaR_6utoipa7OpenApi7openapi
FN:55,_RNvXNvXs_CsbcqkHOmXg85_5oauthNtB7_6ApiDocNtCs7uGmPRfeiaR_6utoipa7OpenApi7openapiNtB2_73oauth_adapters_web_controllers_general_controller_login_controller_configNtNtBF_5___dev10PathConfig4path
FN:55,_RNvXNvXs_CsbcqkHOmXg85_5oauthNtB7_6ApiDocNtCs7uGmPRfeiaR_6utoipa7OpenApi7openapiNtB2_73oauth_adapters_web_controllers_general_controller_login_controller_configNtNtBF_5___dev10PathConfig7methods
FN:55,_RNvXNvXs_CsbcqkHOmXg85_5oauthNtB7_6ApiDocNtCs7uGmPRfeiaR_6utoipa7OpenApi7openapiNtB2_73oauth_adapters_web_controllers_general_controller_login_controller_configNtNtBF_5___dev10PathConfig18tags_and_operation
FN:55,_RNvXs_NvXs_CsbcqkHOmXg85_5oauthNtB9_6ApiDocNtCs7uGmPRfeiaR_6utoipa7OpenApi7openapiNtB4_76oauth_adapters_web_controllers_user_controller_create_user_controller_configNtNtBH_5___dev10PathConfig4path
FN:55,_RNvXs_NvXs_CsbcqkHOmXg85_5oauthNtB9_6ApiDocNtCs7uGmPRfeiaR_6utoipa7OpenApi7openapiNtB4_76oauth_adapters_web_controllers_user_controller_create_user_controller_configNtNtBH_5___dev10PathConfig7methods
FN:55,_RNvXs_NvXs_CsbcqkHOmXg85_5oauthNtB9_6ApiDocNtCs7uGmPRfeiaR_6utoipa7OpenApi7openapiNtB4_76oauth_adapters_web_controllers_user_controller_create_user_controller_configNtNtBH_5___dev10PathConfig18tags_and_operation
FN:55,_RNvXs0_NvXs_CsbcqkHOmXg85_5oauthNtBa_6ApiDocNtCs7uGmPRfeiaR_6utoipa7OpenApi7openapiNtB5_74oauth_adapters_web_controllers_user_controller_get_users_controller_configNtNtBI_5___dev10PathConfig4path
FN:55,_RNvXs0_NvXs_CsbcqkHOmXg85_5oauthNtBa_6ApiDocNtCs7uGmPRfeiaR_6utoipa7OpenApi7openapiNtB5_74oauth_adapters_web_controllers_user_controller_get_users_controller_configNtNtBI_5___dev10PathConfig7methods
FN:55,_RNvXs0_NvXs_CsbcqkHOmXg85_5oauthNtBa_6ApiDocNtCs7uGmPRfeiaR_6utoipa7OpenApi7openapiNtB5_74oauth_adapters_web_controllers_user_controller_get_users_controller_configNtNtBI_5___dev10PathConfig18tags_and_operation
FN:55,_RNvXs1_NvXs_CsbcqkHOmXg85_5oauthNtBa_6ApiDocNtCs7uGmPRfeiaR_6utoipa7OpenApi7openapiNtB5_73oauth_adapters_web_controllers_user_controller_get_user_controller_configNtNtBI_5___dev10PathConfig4path
FN:55,_RNvXs1_NvXs_CsbcqkHOmXg85_5oauthNtBa_6ApiDocNtCs7uGmPRfeiaR_6utoipa7OpenApi7openapiNtB5_73oauth_adapters_web_controllers_user_controller_get_user_controller_configNtNtBI_5___dev10PathConfig7methods
FN:55,_RNvXs1_NvXs_CsbcqkHOmXg85_5oauthNtBa_6ApiDocNtCs7uGmPRfeiaR_6utoipa7OpenApi7openapiNtB5_73oauth_adapters_web_controllers_user_controller_get_user_controller_configNtNtBI_5___dev10PathConfig18tags_and_operation
FN:55,_RNvXs2_NvXs_CsbcqkHOmXg85_5oauthNtBa_6ApiDocNtCs7uGmPRfeiaR_6utoipa7OpenApi7openapiNtB5_76oauth_adapters_web_controllers_user_controller_update_user_controller_configNtNtBI_5___dev10PathConfig4path
FN:55,_RNvXs2_NvXs_CsbcqkHOmXg85_5oauthNtBa_6ApiDocNtCs7uGmPRfeiaR_6utoipa7OpenApi7openapiNtB5_76oauth_adapters_web_controllers_user_controller_update_user_controller_configNtNtBI_5___dev10PathConfig7methods
FN:55,_RNvXs2_NvXs_CsbcqkHOmXg85_5oauthNtBa_6ApiDocNtCs7uGmPRfeiaR_6utoipa7OpenApi7openapiNtB5_76oauth_adapters_web_controllers_user_controller_update_user_controller_configNtNtBI_5___dev10PathConfig18tags_and_operation
FN:55,_RNvXs3_NvXs_CsbcqkHOmXg85_5oauthNtBa_6ApiDocNtCs7uGmPRfeiaR_6utoipa7OpenApi7openapiNtB5_80oauth_adapters_web_controllers_user_controller_update_password_controller_configNtNtBI_5___dev10PathConfig4path
FN:55,_RNvXs3_NvXs_CsbcqkHOmXg85_5oauthNtBa_6ApiDocNtCs7uGmPRfeiaR_6utoipa7OpenApi7openapiNtB5_80oauth_adapters_web_controllers_user_controller_update_password_controller_configNtNtBI_5___dev10PathConfig7methods
FN:55,_RNvXs3_NvXs_CsbcqkHOmXg85_5oauthNtBa_6ApiDocNtCs7uGmPRfeiaR_6utoipa7OpenApi7openapiNtB5_80oauth_adapters_web_controllers_user_controller_update_password_controller_configNtNtBI_5___dev10PathConfig18tags_and_operation
FN:55,_RNvXs4_NvXs_CsbcqkHOmXg85_5oauthNtBa_6ApiDocNtCs7uGmPRfeiaR_6utoipa7OpenApi7openapiNtB5_76oauth_adapters_web_controllers_user_controller_delete_user_controller_configNtNtBI_5___dev10PathConfig4path
FN:55,_RNvXs4_NvXs_CsbcqkHOmXg85_5oauthNtBa_6ApiDocNtCs7uGmPRfeiaR_6utoipa7OpenApi7openapiNtB5_76oauth_adapters_web_controllers_user_controller_delete_user_controller_configNtNtBI_5___dev10PathConfig7methods
FN:55,_RNvXs4_NvXs_CsbcqkHOmXg85_5oauthNtBa_6ApiDocNtCs7uGmPRfeiaR_6utoipa7OpenApi7openapiNtB5_76oauth_adapters_web_controllers_user_controller_delete_user_controller_configNtNtBI_5___dev10PathConfig18tags_and_operation
FN:55,_RNvXs5_NvXs_CsbcqkHOmXg85_5oauthNtBa_6ApiDocNtCs7uGmPRfeiaR_6utoipa7OpenApi7openapiNtB5_81oauth_adapters_web_controllers_user_controller_add_role_to_user_controller_configNtNtBI_5___dev10PathConfig4path
FN:55,_RNvXs5_NvXs_CsbcqkHOmXg85_5oauthNtBa_6ApiDocNtCs7uGmPRfeiaR_6utoipa7OpenApi7openapiNtB5_81oauth_adapters_web_controllers_user_controller_add_role_to_user_controller_configNtNtBI_5___dev10PathConfig7methods
FN:55,_RNvXs5_NvXs_CsbcqkHOmXg85_5oauthNtBa_6ApiDocNtCs7uGmPRfeiaR_6utoipa7OpenApi7openapiNtB5_81oauth_adapters_web_controllers_user_controller_add_role_to_user_controller_configNtNtBI_5___dev10PathConfig18tags_and_operation
FN:55,_RNvXs6_NvXs_CsbcqkHOmXg85_5oauthNtBa_6ApiDocNtCs7uGmPRfeiaR_6utoipa7OpenApi7openapiNtB5_86oauth_adapters_web_controllers_user_controller_remove_role_from_user_controller_configNtNtBI_5___dev10PathConfig4path
FN:55,_RNvXs6_NvXs_CsbcqkHOmXg85_5oauthNtBa_6ApiDocNtCs7uGmPRfeiaR_6utoipa7OpenApi7openapiNtB5_86oauth_adapters_web_controllers_user_controller_remove_role_from_user_controller_configNtNtBI_5___dev10PathConfig7methods
FN:55,_RNvXs6_NvXs_CsbcqkHOmXg85_5oauthNtBa_6ApiDocNtCs7uGmPRfeiaR_6utoipa7OpenApi7openapiNtB5_86oauth_adapters_web_controllers_user_controller_remove_role_from_user_controller_configNtNtBI_5___dev10PathConfig18tags_and_operation
FN:55,_RNvXs7_NvXs_CsbcqkHOmXg85_5oauthNtBa_6ApiDocNtCs7uGmPRfeiaR_6utoipa7OpenApi7openapiNtB5_76oauth_adapters_web_controllers_role_controller_create_role_controller_configNtNtBI_5___dev10PathConfig4path
FN:55,_RNvXs7_NvXs_CsbcqkHOmXg85_5oauthNtBa_6ApiDocNtCs7uGmPRfeiaR_6utoipa7OpenApi7openapiNtB5_76oauth_adapters_web_controllers_role_controller_create_role_controller_configNtNtBI_5___dev10PathConfig7methods
FN:55,_RNvXs7_NvXs_CsbcqkHOmXg85_5oauthNtBa_6ApiDocNtCs7uGmPRfeiaR_6utoipa7OpenApi7openapiNtB5_76oauth_adapters_web_controllers_role_controller_create_role_controller_configNtNtBI_5___dev10PathConfig18tags_and_operation
FN:55,_RNvXs8_NvXs_CsbcqkHOmXg85_5oauthNtBa_6ApiDocNtCs7uGmPRfeiaR_6utoipa7OpenApi7openapiNtB5_74oauth_adapters_web_controllers_role_controller_get_roles_controller_configNtNtBI_5___dev10PathConfig4path
FN:55,_RNvXs8_NvXs_CsbcqkHOmXg85_5oauthNtBa_6ApiDocNtCs7uGmPRfeiaR_6utoipa7OpenApi7openapiNtB5_74oauth_adapters_web_controllers_role_controller_get_roles_controller_configNtNtBI_5___dev10PathConfig7methods
FN:55,_RNvXs8_NvXs_CsbcqkHOmXg85_5oauthNtBa_6ApiDocNtCs7uGmPRfeiaR_6utoipa7OpenApi7openapiNtB5_74oauth_adapters_web_controllers_role_controller_get_roles_controller_configNtNtBI_5___dev10PathConfig18tags_and_operation
FN:55,_RNvXs9_NvXs_CsbcqkHOmXg85_5oauthNtBa_6ApiDocNtCs7uGmPRfeiaR_6utoipa7OpenApi7openapiNtB5_73oauth_adapters_web_controllers_role_controller_get_role_controller_configNtNtBI_5___dev10PathConfig4path
FN:55,_RNvXs9_NvXs_CsbcqkHOmXg85_5oauthNtBa_6ApiDocNtCs7uGmPRfeiaR_6utoipa7OpenApi7openapiNtB5_73oauth_adapters_web_controllers_role_controller_get_role_controller_configNtNtBI_5___dev10PathConfig7methods
FN:55,_RNvXs9_NvXs_CsbcqkHOmXg85_5oauthNtBa_6ApiDocNtCs7uGmPRfeiaR_6utoipa7OpenApi7openapiNtB5_73oauth_adapters_web_controllers_role_controller_get_role_controller_configNtNtBI_5___dev10PathConfig18tags_and_operation
FN:55,_RNvXsa_NvXs_CsbcqkHOmXg85_5oauthNtBa_6ApiDocNtCs7uGmPRfeiaR_6utoipa7OpenApi7openapiNtB5_76oauth_adapters_web_controllers_role_controller_update_role_controller_configNtNtBI_5___dev10PathConfig4path
FN:55,_RNvXsa_NvXs_CsbcqkHOmXg85_5oauthNtBa_6ApiDocNtCs7uGmPRfeiaR_6utoipa7OpenApi7openapiNtB5_76oauth_adapters_web_controllers_role_controller_update_role_controller_configNtNtBI_5___dev10PathConfig7methods
FN:55,_RNvXsa_NvXs_CsbcqkHOmXg85_5oauthNtBa_6ApiDocNtCs7uGmPRfeiaR_6utoipa7OpenApi7openapiNtB5_76oauth_adapters_web_controllers_role_controller_update_role_controller_configNtNtBI_5___dev10PathConfig18tags_and_operation
FN:55,_RNvXsb_NvXs_CsbcqkHOmXg85_5oauthNtBa_6ApiDocNtCs7uGmPRfeiaR_6utoipa7OpenApi7openapiNtB5_75oauth_adapters_web_controllers_role_controller_patch_role_controller_configNtNtBI_5___dev10PathConfig4path
FN:55,_RNvXsb_NvXs_CsbcqkHOmXg85_5oauthNtBa_6ApiDocNtCs7uGmPRfeiaR_6utoipa7OpenApi7openapiNtB5_75oauth_adapters_web_controllers_role_controller_patch_role_controller_configNtNtBI_5___dev10PathConfig7methods
FN:55,_RNvXsb_NvXs_CsbcqkHOmXg85_5oauthNtBa_6ApiDocNtCs7uGmPRfeiaR_6utoipa7OpenApi7openapiNtB5_75oauth_adapters_web_controllers_role_controller_patch_role_controller_configNtNtBI_5___dev10PathConfig18tags_and_operation
FN:55,_RNvXsc_NvXs_CsbcqkHOmXg85_5oauthNtBa_6ApiDocNtCs7uGmPRfeiaR_6utoipa7OpenApi7openapiNtB5_76oauth_adapters_web_controllers_role_controller_delete_role_controller_configNtNtBI_5___dev10PathConfig4path
FN:55,_RNvXsc_NvXs_CsbcqkHOmXg85_5oauthNtBa_6ApiDocNtCs7uGmPRfeiaR_6utoipa7OpenApi7openapiNtB5_76oauth_adapters_web_controllers_role_controller_delete_role_controller_configNtNtBI_5___dev10PathConfig7methods
FN:55,_RNvXsc_NvXs_CsbcqkHOmXg85_5oauthNtBa_6ApiDocNtCs7uGmPRfeiaR_6utoipa7OpenApi7openapiNtB5_76oauth_adapters_web_controllers_role_controller_delete_role_controller_configNtNtBI_5___dev10PathConfig18tags_and_operation
FN:101,_RNvCsbcqkHOmXg85_5oauth4main
FN:55,_RNCNvXs_CsbcqkHOmXg85_5oauthNtB6_6ApiDocNtCs7uGmPRfeiaR_6utoipa7OpenApi7openapi0B6_
FN:101,_RNCNvCsbcqkHOmXg85_5oauth4main0B3_
FN:111,_RNCNCNvCsbcqkHOmXg85_5oauth4main00B5_
FNDA:0,_RNvXCs523RQYff1ih_5oauthNtB2_13SecurityAddonNtCs7uGmPRfeiaR_6utoipa6Modify6modify
FNDA:0,_RNvXs_Cs523RQYff1ih_5oauthNtB4_6ApiDocNtCs7uGmPRfeiaR_6utoipa7OpenApi7openapi
FNDA:0,_RNvXNvXs_Cs523RQYff1ih_5oauthNtB7_6ApiDocNtCs7uGmPRfeiaR_6utoipa7OpenApi7openapiNtB2_73oauth_adapters_web_controllers_general_controller_login_controller_configNtNtBF_5___dev10PathConfig4path
FNDA:0,_RNvXNvXs_Cs523RQYff1ih_5oauthNtB7_6ApiDocNtCs7uGmPRfeiaR_6utoipa7OpenApi7openapiNtB2_73oauth_adapters_web_controllers_general_controller_login_controller_configNtNtBF_5___dev10PathConfig7methods
FNDA:0,_RNvXNvXs_Cs523RQYff1ih_5oauthNtB7_6ApiDocNtCs7uGmPRfeiaR_6utoipa7OpenApi7openapiNtB2_73oauth_adapters_web_controllers_general_controller_login_controller_configNtNtBF_5___dev10PathConfig18tags_and_operation
FNDA:0,_RNvXs_NvXs_Cs523RQYff1ih_5oauthNtB9_6ApiDocNtCs7uGmPRfeiaR_6utoipa7OpenApi7openapiNtB4_76oauth_adapters_web_controllers_user_controller_create_user_controller_configNtNtBH_5___dev10PathConfig4path
FNDA:0,_RNvXs_NvXs_Cs523RQYff1ih_5oauthNtB9_6ApiDocNtCs7uGmPRfeiaR_6utoipa7OpenApi7openapiNtB4_76oauth_adapters_web_controllers_user_controller_create_user_controller_configNtNtBH_5___dev10PathConfig7methods
FNDA:0,_RNvXs_NvXs_Cs523RQYff1ih_5oauthNtB9_6ApiDocNtCs7uGmPRfeiaR_6utoipa7OpenApi7openapiNtB4_76oauth_adapters_web_controllers_user_controller_create_user_controller_configNtNtBH_5___dev10PathConfig18tags_and_operation
FNDA:0,_RNvXs0_NvXs_Cs523RQYff1ih_5oauthNtBa_6ApiDocNtCs7uGmPRfeiaR_6utoipa7OpenApi7openapiNtB5_74oauth_adapters_web_controllers_user_controller_get_users_controller_configNtNtBI_5___dev10PathConfig4path
FNDA:0,_RNvXs0_NvXs_Cs523RQYff1ih_5oauthNtBa_6ApiDocNtCs7uGmPRfeiaR_6utoipa7OpenApi7openapiNtB5_74oauth_adapters_web_controllers_user_controller_get_users_controller_configNtNtBI_5___dev10PathConfig7methods
FNDA:0,_RNvXs0_NvXs_Cs523RQYff1ih_5oauthNtBa_6ApiDocNtCs7uGmPRfeiaR_6utoipa7OpenApi7openapiNtB5_74oauth_adapters_web_controllers_user_controller_get_users_controller_configNtNtBI_5___dev10PathConfig18tags_and_operation
FNDA:0,_RNvXs1_NvXs_Cs523RQYff1ih_5oauthNtBa_6ApiDocNtCs7uGmPRfeiaR_6utoipa7OpenApi7openapiNtB5_73oauth_adapters_web_controllers_user_controller_get_user_controller_configNtNtBI_5___dev10PathConfig4path
FNDA:0,_RNvXs1_NvXs_Cs523RQYff1ih_5oauthNtBa_6ApiDocNtCs7uGmPRfeiaR_6utoipa7OpenApi7openapiNtB5_73oauth_adapters_web_controllers_user_controller_get_user_controller_configNtNtBI_5___dev10PathConfig7methods
FNDA:0,_RNvXs1_NvXs_Cs523RQYff1ih_5oauthNtBa_6ApiDocNtCs7uGmPRfeiaR_6utoipa7OpenApi7openapiNtB5_73oauth_adapters_web_controllers_user_controller_get_user_controller_configNtNtBI_5___dev10PathConfig18tags_and_operation
FNDA:0,_RNvXs2_NvXs_Cs523RQYff1ih_5oauthNtBa_6ApiDocNtCs7uGmPRfeiaR_6utoipa7OpenApi7openapiNtB5_76oauth_adapters_web_controllers_user_controller_update_user_controller_configNtNtBI_5___dev10PathConfig4path
FNDA:0,_RNvXs2_NvXs_Cs523RQYff1ih_5oauthNtBa_6ApiDocNtCs7uGmPRfeiaR_6utoipa7OpenApi7openapiNtB5_76oauth_adapters_web_controllers_user_controller_update_user_controller_configNtNtBI_5___dev10PathConfig7methods
FNDA:0,_RNvXs2_NvXs_Cs523RQYff1ih_5oauthNtBa_6ApiDocNtCs7uGmPRfeiaR_6utoipa7OpenApi7openapiNtB5_76oauth_adapters_web_controllers_user_controller_update_user_controller_configNtNtBI_5___dev10PathConfig18tags_and_operation
FNDA:0,_RNvXs3_NvXs_Cs523RQYff1ih_5oauthNtBa_6ApiDocNtCs7uGmPRfeiaR_6utoipa7OpenApi7openapiNtB5_80oauth_adapters_web_controllers_user_controller_update_password_controller_configNtNtBI_5___dev10PathConfig4path
FNDA:0,_RNvXs3_NvXs_Cs523RQYff1ih_5oauthNtBa_6ApiDocNtCs7uGmPRfeiaR_6utoipa7OpenApi7openapiNtB5_80oauth_adapters_web_controllers_user_controller_update_password_controller_configNtNtBI_5___dev10PathConfig7methods
FNDA:0,_RNvXs3_NvXs_Cs523RQYff1ih_5oauthNtBa_6ApiDocNtCs7uGmPRfeiaR_6utoipa7OpenApi7openapiNtB5_80oauth_adapters_web_controllers_user_controller_update_password_controller_configNtNtBI_5___dev10PathConfig18tags_and_operation
FNDA:0,_RNvXs4_NvXs_Cs523RQYff1ih_5oauthNtBa_6ApiDocNtCs7uGmPRfeiaR_6utoipa7OpenApi7openapiNtB5_76oauth_adapters_web_controllers_user_controller_delete_user_controller_configNtNtBI_5___dev10PathConfig4path
FNDA:0,_RNvXs4_NvXs_Cs523RQYff1ih_5oauthNtBa_6ApiDocNtCs7uGmPRfeiaR_6utoipa7OpenApi7openapiNtB5_76oauth_adapters_web_controllers_user_controller_delete_user_controller_configNtNtBI_5___dev10PathConfig7methods
FNDA:0,_RNvXs4_NvXs_Cs523RQYff1ih_5oauthNtBa_6ApiDocNtCs7uGmPRfeiaR_6utoipa7OpenApi7openapiNtB5_76oauth_adapters_web_controllers_user_controller_delete_user_controller_configNtNtBI_5___dev10PathConfig18tags_and_operation
FNDA:0,_RNvXs5_NvXs_Cs523RQYff1ih_5oauthNtBa_6ApiDocNtCs7uGmPRfeiaR_6utoipa7OpenApi7openapiNtB5_81oauth_adapters_web_controllers_user_controller_add_role_to_user_controller_configNtNtBI_5___dev10PathConfig4path
FNDA:0,_RNvXs5_NvXs_Cs523RQYff1ih_5oauthNtBa_6ApiDocNtCs7uGmPRfeiaR_6utoipa7OpenApi7openapiNtB5_81oauth_adapters_web_controllers_user_controller_add_role_to_user_controller_configNtNtBI_5___dev10PathConfig7methods
FNDA:0,_RNvXs5_NvXs_Cs523RQYff1ih_5oauthNtBa_6ApiDocNtCs7uGmPRfeiaR_6utoipa7OpenApi7openapiNtB5_81oauth_adapters_web_controllers_user_controller_add_role_to_user_controller_configNtNtBI_5___dev10PathConfig18tags_and_operation
FNDA:0,_RNvXs6_NvXs_Cs523RQYff1ih_5oauthNtBa_6ApiDocNtCs7uGmPRfeiaR_6utoipa7OpenApi7openapiNtB5_86oauth_adapters_web_controllers_user_controller_remove_role_from_user_controller_configNtNtBI_5___dev10PathConfig4path
FNDA:0,_RNvXs6_NvXs_Cs523RQYff1ih_5oauthNtBa_6ApiDocNtCs7uGmPRfeiaR_6utoipa7OpenApi7openapiNtB5_86oauth_adapters_web_controllers_user_controller_remove_role_from_user_controller_configNtNtBI_5___dev10PathConfig7methods
FNDA:0,_RNvXs6_NvXs_Cs523RQYff1ih_5oauthNtBa_6ApiDocNtCs7uGmPRfeiaR_6utoipa7OpenApi7openapiNtB5_86oauth_adapters_web_controllers_user_controller_remove_role_from_user_controller_configNtNtBI_5___dev10PathConfig18tags_and_operation
FNDA:0,_RNvXs7_NvXs_Cs523RQYff1ih_5oauthNtBa_6ApiDocNtCs7uGmPRfeiaR_6utoipa7OpenApi7openapiNtB5_76oauth_adapters_web_controllers_role_controller_create_role_controller_configNtNtBI_5___dev10PathConfig4path
FNDA:0,_RNvXs7_NvXs_Cs523RQYff1ih_5oauthNtBa_6ApiDocNtCs7uGmPRfeiaR_6utoipa7OpenApi7openapiNtB5_76oauth_adapters_web_controllers_role_controller_create_role_controller_configNtNtBI_5___dev10PathConfig7methods
FNDA:0,_RNvXs7_NvXs_Cs523RQYff1ih_5oauthNtBa_6ApiDocNtCs7uGmPRfeiaR_6utoipa7OpenApi7openapiNtB5_76oauth_adapters_web_controllers_role_controller_create_role_controller_configNtNtBI_5___dev10PathConfig18tags_and_operation
FNDA:0,_RNvXs8_NvXs_Cs523RQYff1ih_5oauthNtBa_6ApiDocNtCs7uGmPRfeiaR_6utoipa7OpenApi7openapiNtB5_74oauth_adapters_web_controllers_role_controller_get_roles_controller_configNtNtBI_5___dev10PathConfig4path
FNDA:0,_RNvXs8_NvXs_Cs523RQYff1ih_5oauthNtBa_6ApiDocNtCs7uGmPRfeiaR_6utoipa7OpenApi7openapiNtB5_74oauth_adapters_web_controllers_role_controller_get_roles_controller_configNtNtBI_5___dev10PathConfig7methods
FNDA:0,_RNvXs8_NvXs_Cs523RQYff1ih_5oauthNtBa_6ApiDocNtCs7uGmPRfeiaR_6utoipa7OpenApi7openapiNtB5_74oauth_adapters_web_controllers_role_controller_get_roles_controller_configNtNtBI_5___dev10PathConfig18tags_and_operation
FNDA:0,_RNvXs9_NvXs_Cs523RQYff1ih_5oauthNtBa_6ApiDocNtCs7uGmPRfeiaR_6utoipa7OpenApi7openapiNtB5_73oauth_adapters_web_controllers_role_controller_get_role_controller_configNtNtBI_5___dev10PathConfig4path
FNDA:0,_RNvXs9_NvXs_Cs523RQYff1ih_5oauthNtBa_6ApiDocNtCs7uGmPRfeiaR_6utoipa7OpenApi7openapiNtB5_73oauth_adapters_web_controllers_role_controller_get_role_controller_configNtNtBI_5___dev10PathConfig7methods
FNDA:0,_RNvXs9_NvXs_Cs523RQYff1ih_5oauthNtBa_6ApiDocNtCs7uGmPRfeiaR_6utoipa7OpenApi7openapiNtB5_73oauth_adapters_web_controllers_role_controller_get_role_controller_configNtNtBI_5___dev10PathConfig18tags_and_operation
FNDA:0,_RNvXsa_NvXs_Cs523RQYff1ih_5oauthNtBa_6ApiDocNtCs7uGmPRfeiaR_6utoipa7OpenApi7openapiNtB5_76oauth_adapters_web_controllers_role_controller_update_role_controller_configNtNtBI_5___dev10PathConfig4path
FNDA:0,_RNvXsa_NvXs_Cs523RQYff1ih_5oauthNtBa_6ApiDocNtCs7uGmPRfeiaR_6utoipa7OpenApi7openapiNtB5_76oauth_adapters_web_controllers_role_controller_update_role_controller_configNtNtBI_5___dev10PathConfig7methods
FNDA:0,_RNvXsa_NvXs_Cs523RQYff1ih_5oauthNtBa_6ApiDocNtCs7uGmPRfeiaR_6utoipa7OpenApi7openapiNtB5_76oauth_adapters_web_controllers_role_controller_update_role_controller_configNtNtBI_5___dev10PathConfig18tags_and_operation
FNDA:0,_RNvXsb_NvXs_Cs523RQYff1ih_5oauthNtBa_6ApiDocNtCs7uGmPRfeiaR_6utoipa7OpenApi7openapiNtB5_75oauth_adapters_web_controllers_role_controller_patch_role_controller_configNtNtBI_5___dev10PathConfig4path
FNDA:0,_RNvXsb_NvXs_Cs523RQYff1ih_5oauthNtBa_6ApiDocNtCs7uGmPRfeiaR_6utoipa7OpenApi7openapiNtB5_75oauth_adapters_web_controllers_role_controller_patch_role_controller_configNtNtBI_5___dev10PathConfig7methods
FNDA:0,_RNvXsb_NvXs_Cs523RQYff1ih_5oauthNtBa_6ApiDocNtCs7uGmPRfeiaR_6utoipa7OpenApi7openapiNtB5_75oauth_adapters_web_controllers_role_controller_patch_role_controller_configNtNtBI_5___dev10PathConfig18tags_and_operation
FNDA:0,_RNvXsc_NvXs_Cs523RQYff1ih_5oauthNtBa_6ApiDocNtCs7uGmPRfeiaR_6utoipa7OpenApi7openapiNtB5_76oauth_adapters_web_controllers_role_controller_delete_role_controller_configNtNtBI_5___dev10PathConfig4path
FNDA:0,_RNvXsc_NvXs_Cs523RQYff1ih_5oauthNtBa_6ApiDocNtCs7uGmPRfeiaR_6utoipa7OpenApi7openapiNtB5_76oauth_adapters_web_controllers_role_controller_delete_role_controller_configNtNtBI_5___dev10PathConfig7methods
FNDA:0,_RNvXsc_NvXs_Cs523RQYff1ih_5oauthNtBa_6ApiDocNtCs7uGmPRfeiaR_6utoipa7OpenApi7openapiNtB5_76oauth_adapters_web_controllers_role_controller_delete_role_controller_configNtNtBI_5___dev10PathConfig18tags_and_operation
FNDA:0,_RNCNvXs_Cs523RQYff1ih_5oauthNtB6_6ApiDocNtCs7uGmPRfeiaR_6utoipa7OpenApi7openapi0B6_
FNDA:0,_RNvCs523RQYff1ih_5oauth4main
FNDA:0,_RNCNvCs523RQYff1ih_5oauth4main0B3_
FNDA:0,_RNCNCNvCs523RQYff1ih_5oauth4main00B5_
FNDA:0,_RNvXCsbcqkHOmXg85_5oauthNtB2_13SecurityAddonNtCs7uGmPRfeiaR_6utoipa6Modify6modify
FNDA:0,_RNvXs_CsbcqkHOmXg85_5oauthNtB4_6ApiDocNtCs7uGmPRfeiaR_6utoipa7OpenApi7openapi
FNDA:0,_RNvXNvXs_CsbcqkHOmXg85_5oauthNtB7_6ApiDocNtCs7uGmPRfeiaR_6utoipa7OpenApi7openapiNtB2_73oauth_adapters_web_controllers_general_controller_login_controller_configNtNtBF_5___dev10PathConfig4path
FNDA:0,_RNvXNvXs_CsbcqkHOmXg85_5oauthNtB7_6ApiDocNtCs7uGmPRfeiaR_6utoipa7OpenApi7openapiNtB2_73oauth_adapters_web_controllers_general_controller_login_controller_configNtNtBF_5___dev10PathConfig7methods
FNDA:0,_RNvXNvXs_CsbcqkHOmXg85_5oauthNtB7_6ApiDocNtCs7uGmPRfeiaR_6utoipa7OpenApi7openapiNtB2_73oauth_adapters_web_controllers_general_controller_login_controller_configNtNtBF_5___dev10PathConfig18tags_and_operation
FNDA:0,_RNvXs_NvXs_CsbcqkHOmXg85_5oauthNtB9_6ApiDocNtCs7uGmPRfeiaR_6utoipa7OpenApi7openapiNtB4_76oauth_adapters_web_controllers_user_controller_create_user_controller_configNtNtBH_5___dev10PathConfig4path
FNDA:0,_RNvXs_NvXs_CsbcqkHOmXg85_5oauthNtB9_6ApiDocNtCs7uGmPRfeiaR_6utoipa7OpenApi7openapiNtB4_76oauth_adapters_web_controllers_user_controller_create_user_controller_configNtNtBH_5___dev10PathConfig7methods
FNDA:0,_RNvXs_NvXs_CsbcqkHOmXg85_5oauthNtB9_6ApiDocNtCs7uGmPRfeiaR_6utoipa7OpenApi7openapiNtB4_76oauth_adapters_web_controllers_user_controller_create_user_controller_configNtNtBH_5___dev10PathConfig18tags_and_operation
FNDA:0,_RNvXs0_NvXs_CsbcqkHOmXg85_5oauthNtBa_6ApiDocNtCs7uGmPRfeiaR_6utoipa7OpenApi7openapiNtB5_74oauth_adapters_web_controllers_user_controller_get_users_controller_configNtNtBI_5___dev10PathConfig4path
FNDA:0,_RNvXs0_NvXs_CsbcqkHOmXg85_5oauthNtBa_6ApiDocNtCs7uGmPRfeiaR_6utoipa7OpenApi7openapiNtB5_74oauth_adapters_web_controllers_user_controller_get_users_controller_configNtNtBI_5___dev10PathConfig7methods
FNDA:0,_RNvXs0_NvXs_CsbcqkHOmXg85_5oauthNtBa_6ApiDocNtCs7uGmPRfeiaR_6utoipa7OpenApi7openapiNtB5_74oauth_adapters_web_controllers_user_controller_get_users_controller_configNtNtBI_5___dev10PathConfig18tags_and_operation
FNDA:0,_RNvXs1_NvXs_CsbcqkHOmXg85_5oauthNtBa_6ApiDocNtCs7uGmPRfeiaR_6utoipa7OpenApi7openapiNtB5_73oauth_adapters_web_controllers_user_controller_get_user_controller_configNtNtBI_5___dev10PathConfig4path
FNDA:0,_RNvXs1_NvXs_CsbcqkHOmXg85_5oauthNtBa_6ApiDocNtCs7uGmPRfeiaR_6utoipa7OpenApi7openapiNtB5_73oauth_adapters_web_controllers_user_controller_get_user_controller_configNtNtBI_5___dev10PathConfig7methods
FNDA:0,_RNvXs1_NvXs_CsbcqkHOmXg85_5oauthNtBa_6ApiDocNtCs7uGmPRfeiaR_6utoipa7OpenApi7openapiNtB5_73oauth_adapters_web_controllers_user_controller_get_user_controller_configNtNtBI_5___dev10PathConfig18tags_and_operation
FNDA:0,_RNvXs2_NvXs_CsbcqkHOmXg85_5oauthNtBa_6ApiDocNtCs7uGmPRfeiaR_6utoipa7OpenApi7openapiNtB5_76oauth_adapters_web_controllers_user_controller_update_user_controller_configNtNtBI_5___dev10PathConfig4path
FNDA:0,_RNvXs2_NvXs_CsbcqkHOmXg85_5oauthNtBa_6ApiDocNtCs7uGmPRfeiaR_6utoipa7OpenApi7openapiNtB5_76oauth_adapters_web_controllers_user_controller_update_user_controller_configNtNtBI_5___dev10PathConfig7methods
FNDA:0,_RNvXs2_NvXs_CsbcqkHOmXg85_5oauthNtBa_6ApiDocNtCs7uGmPRfeiaR_6utoipa7OpenApi7openapiNtB5_76oauth_adapters_web_controllers_user_controller_update_user_controller_configNtNtBI_5___dev10PathConfig18tags_and_operation
FNDA:0,_RNvXs3_NvXs_CsbcqkHOmXg85_5oauthNtBa_6ApiDocNtCs7uGmPRfeiaR_6utoipa7OpenApi7openapiNtB5_80oauth_adapters_web_controllers_user_controller_update_password_controller_configNtNtBI_5___dev10PathConfig4path
FNDA:0,_RNvXs3_NvXs_CsbcqkHOmXg85_5oauthNtBa_6ApiDocNtCs7uGmPRfeiaR_6utoipa7OpenApi7openapiNtB5_80oauth_adapters_web_controllers_user_controller_update_password_controller_configNtNtBI_5___dev10PathConfig7methods
FNDA:0,_RNvXs3_NvXs_CsbcqkHOmXg85_5oauthNtBa_6ApiDocNtCs7uGmPRfeiaR_6utoipa7OpenApi7openapiNtB5_80oauth_adapters_web_controllers_user_controller_update_password_controller_configNtNtBI_5___dev10PathConfig18tags_and_operation
FNDA:0,_RNvXs4_NvXs_CsbcqkHOmXg85_5oauthNtBa_6ApiDocNtCs7uGmPRfeiaR_6utoipa7OpenApi7openapiNtB5_76oauth_adapters_web_controllers_user_controller_delete_user_controller_configNtNtBI_5___dev10PathConfig4path
FNDA:0,_RNvXs4_NvXs_CsbcqkHOmXg85_5oauthNtBa_6ApiDocNtCs7uGmPRfeiaR_6utoipa7OpenApi7openapiNtB5_76oauth_adapters_web_controllers_user_controller_delete_user_controller_configNtNtBI_5___dev10PathConfig7methods
FNDA:0,_RNvXs4_NvXs_CsbcqkHOmXg85_5oauthNtBa_6ApiDocNtCs7uGmPRfeiaR_6utoipa7OpenApi7openapiNtB5_76oauth_adapters_web_controllers_user_controller_delete_user_controller_configNtNtBI_5___dev10PathConfig18tags_and_operation
FNDA:0,_RNvXs5_NvXs_CsbcqkHOmXg85_5oauthNtBa_6ApiDocNtCs7uGmPRfeiaR_6utoipa7OpenApi7openapiNtB5_81oauth_adapters_web_controllers_user_controller_add_role_to_user_controller_configNtNtBI_5___dev10PathConfig4path
FNDA:0,_RNvXs5_NvXs_CsbcqkHOmXg85_5oauthNtBa_6ApiDocNtCs7uGmPRfeiaR_6utoipa7OpenApi7openapiNtB5_81oauth_adapters_web_controllers_user_controller_add_role_to_user_controller_configNtNtBI_5___dev10PathConfig7methods
FNDA:0,_RNvXs5_NvXs_CsbcqkHOmXg85_5oauthNtBa_6ApiDocNtCs7uGmPRfeiaR_6utoipa7OpenApi7openapiNtB5_81oauth_adapters_web_controllers_user_controller_add_role_to_user_controller_configNtNtBI_5___dev10PathConfig18tags_and_operation
FNDA:0,_RNvXs6_NvXs_CsbcqkHOmXg85_5oauthNtBa_6ApiDocNtCs7uGmPRfeiaR_6utoipa7OpenApi7openapiNtB5_86oauth_adapters_web_controllers_user_controller_remove_role_from_user_controller_configNtNtBI_5___dev10PathConfig4path
FNDA:0,_RNvXs6_NvXs_CsbcqkHOmXg85_5oauthNtBa_6ApiDocNtCs7uGmPRfeiaR_6utoipa7OpenApi7openapiNtB5_86oauth_adapters_web_controllers_user_controller_remove_role_from_user_controller_configNtNtBI_5___dev10PathConfig7methods
FNDA:0,_RNvXs6_NvXs_CsbcqkHOmXg85_5oauthNtBa_6ApiDocNtCs7uGmPRfeiaR_6utoipa7OpenApi7openapiNtB5_86oauth_adapters_web_controllers_user_controller_remove_role_from_user_controller_configNtNtBI_5___dev10PathConfig18tags_and_operation
FNDA:0,_RNvXs7_NvXs_CsbcqkHOmXg85_5oauthNtBa_6ApiDocNtCs7uGmPRfeiaR_6utoipa7OpenApi7openapiNtB5_76oauth_adapters_web_controllers_role_controller_create_role_controller_configNtNtBI_5___dev10PathConfig4path
FNDA:0,_RNvXs7_NvXs_CsbcqkHOmXg85_5oauthNtBa_6ApiDocNtCs7uGmPRfeiaR_6utoipa7OpenApi7openapiNtB5_76oauth_adapters_web_controllers_role_controller_create_role_controller_configNtNtBI_5___dev10PathConfig7methods
FNDA:0,_RNvXs7_NvXs_CsbcqkHOmXg85_5oauthNtBa_6ApiDocNtCs7uGmPRfeiaR_6utoipa7OpenApi7openapiNtB5_76oauth_adapters_web_controllers_role_controller_create_role_controller_configNtNtBI_5___dev10PathConfig18tags_and_operation
FNDA:0,_RNvXs8_NvXs_CsbcqkHOmXg85_5oauthNtBa_6ApiDocNtCs7uGmPRfeiaR_6utoipa7OpenApi7openapiNtB5_74oauth_adapters_web_controllers_role_controller_get_roles_controller_configNtNtBI_5___dev10PathConfig4path
FNDA:0,_RNvXs8_NvXs_CsbcqkHOmXg85_5oauthNtBa_6ApiDocNtCs7uGmPRfeiaR_6utoipa7OpenApi7openapiNtB5_74oauth_adapters_web_controllers_role_controller_get_roles_controller_configNtNtBI_5___dev10PathConfig7methods
FNDA:0,_RNvXs8_NvXs_CsbcqkHOmXg85_5oauthNtBa_6ApiDocNtCs7uGmPRfeiaR_6utoipa7OpenApi7openapiNtB5_74oauth_adapters_web_controllers_role_controller_get_roles_controller_configNtNtBI_5___dev10PathConfig18tags_and_operation
FNDA:0,_RNvXs9_NvXs_CsbcqkHOmXg85_5oauthNtBa_6ApiDocNtCs7uGmPRfeiaR_6utoipa7OpenApi7openapiNtB5_73oauth_adapters_web_controllers_role_controller_get_role_controller_configNtNtBI_5___dev10PathConfig4path
FNDA:0,_RNvXs9_NvXs_CsbcqkHOmXg85_5oauthNtBa_6ApiDocNtCs7uGmPRfeiaR_6utoipa7OpenApi7openapiNtB5_73oauth_adapters_web_controllers_role_controller_get_role_controller_configNtNtBI_5___dev10PathConfig7methods
FNDA:0,_RNvXs9_NvXs_CsbcqkHOmXg85_5oauthNtBa_6ApiDocNtCs7uGmPRfeiaR_6utoipa7OpenApi7openapiNtB5_73oauth_adapters_web_controllers_role_controller_get_role_controller_configNtNtBI_5___dev10PathConfig18tags_and_operation
FNDA:0,_RNvXsa_NvXs_CsbcqkHOmXg85_5oauthNtBa_6ApiDocNtCs7uGmPRfeiaR_6utoipa7OpenApi7openapiNtB5_76oauth_adapters_web_controllers_role_controller_update_role_controller_configNtNtBI_5___dev10PathConfig4path
FNDA:0,_RNvXsa_NvXs_CsbcqkHOmXg85_5oauthNtBa_6ApiDocNtCs7uGmPRfeiaR_6utoipa7OpenApi7openapiNtB5_76oauth_adapters_web_controllers_role_controller_update_role_controller_configNtNtBI_5___dev10PathConfig7methods
FNDA:0,_RNvXsa_NvXs_CsbcqkHOmXg85_5oauthNtBa_6ApiDocNtCs7uGmPRfeiaR_6utoipa7OpenApi7openapiNtB5_76oauth_adapters_web_controllers_role_controller_update_role_controller_configNtNtBI_5___dev10PathConfig18tags_and_operation
FNDA:0,_RNvXsb_NvXs_CsbcqkHOmXg85_5oauthNtBa_6ApiDocNtCs7uGmPRfeiaR_6utoipa7OpenApi7openapiNtB5_75oauth_adapters_web_controllers_role_controller_patch_role_controller_configNtNtBI_5___dev10PathConfig4path
FNDA:0,_RNvXsb_NvXs_CsbcqkHOmXg85_5oauthNtBa_6ApiDocNtCs7uGmPRfeiaR_6utoipa7OpenApi7openapiNtB5_75oauth_adapters_web_controllers_role_controller_patch_role_controller_configNtNtBI_5___dev10PathConfig7methods
FNDA:0,_RNvXsb_NvXs_CsbcqkHOmXg85_5oauthNtBa_6ApiDocNtCs7uGmPRfeiaR_6utoipa7OpenApi7openapiNtB5_75oauth_adapters_web_controllers_role_controller_patch_role_controller_configNtNtBI_5___dev10PathConfig18tags_and_operation
FNDA:0,_RNvXsc_NvXs_CsbcqkHOmXg85_5oauthNtBa_6ApiDocNtCs7uGmPRfeiaR_6utoipa7OpenApi7openapiNtB5_76oauth_adapters_web_controllers_role_controller_delete_role_controller_configNtNtBI_5___dev10PathConfig4path
FNDA:0,_RNvXsc_NvXs_CsbcqkHOmXg85_5oauthNtBa_6ApiDocNtCs7uGmPRfeiaR_6utoipa7OpenApi7openapiNtB5_76oauth_adapters_web_controllers_role_controller_delete_role_controller_configNtNtBI_5___dev10PathConfig7methods
FNDA:0,_RNvXsc_NvXs_CsbcqkHOmXg85_5oauthNtBa_6ApiDocNtCs7uGmPRfeiaR_6utoipa7OpenApi7openapiNtB5_76oauth_adapters_web_controllers_role_controller_delete_role_controller_configNtNtBI_5___dev10PathConfig18tags_and_operation
FNDA:0,_RNvCsbcqkHOmXg85_5oauth4main
FNDA:0,_RNCNvXs_CsbcqkHOmXg85_5oauthNtB6_6ApiDocNtCs7uGmPRfeiaR_6utoipa7OpenApi7openapi0B6_
FNDA:0,_RNCNvCsbcqkHOmXg85_5oauth4main0B3_
FNDA:0,_RNCNCNvCsbcqkHOmXg85_5oauth4main00B5_
FNF:6
FNH:0
DA:40,0
DA:41,0
DA:42,0
DA:43,0
DA:44,0
DA:45,0
DA:46,0
DA:47,0
DA:48,0
DA:49,0
DA:50,0
DA:51,0
DA:52,0
DA:55,0
DA:101,0
DA:111,0
DA:112,0
DA:113,0
DA:114,0
DA:115,0
DA:116,0
DA:117,0
DA:118,0
DA:119,0
DA:120,0
DA:121,0
DA:122,0
DA:123,0
DA:124,0
DA:125,0
DA:126,0
DA:127,0
DA:128,0
DA:129,0
DA:130,0
DA:131,0
DA:132,0
DA:133,0
BRF:0
BRH:0
LF:40
LH:0
end_of_record
SF:/workspace/oauth/target/llvm-cov-target/debug/build/utoipa-swagger-ui-7cfd8e282f58cd0b/out/embed.rs
FN:3,_RNvMsb_CshlPwPd0xWr0_17utoipa_swagger_uiNtB5_13SwaggerUiDist7matcher
FN:3,_RNCNvMsb_CshlPwPd0xWr0_17utoipa_swagger_uiNtB7_13SwaggerUiDist7matcher0B7_
FN:3,_RNvMsb_CshlPwPd0xWr0_17utoipa_swagger_uiNtB5_13SwaggerUiDist3get
FN:3,_RNvMsb_CshlPwPd0xWr0_17utoipa_swagger_uiNtB5_13SwaggerUiDist4iter
FN:3,_RNCNvMsb_CshlPwPd0xWr0_17utoipa_swagger_uiNtB7_13SwaggerUiDist4iter0B7_
FN:3,_RNvXsc_CshlPwPd0xWr0_17utoipa_swagger_uiNtB5_13SwaggerUiDistNtCscw3PcOhkeAa_10rust_embed9RustEmbed3get
FN:3,_RNvXsc_CshlPwPd0xWr0_17utoipa_swagger_uiNtB5_13SwaggerUiDistNtCscw3PcOhkeAa_10rust_embed9RustEmbed4iter
FNDA:0,_RNvMsb_CshlPwPd0xWr0_17utoipa_swagger_uiNtB5_13SwaggerUiDist7matcher
FNDA:0,_RNCNvMsb_CshlPwPd0xWr0_17utoipa_swagger_uiNtB7_13SwaggerUiDist7matcher0B7_
FNDA:0,_RNvMsb_CshlPwPd0xWr0_17utoipa_swagger_uiNtB5_13SwaggerUiDist3get
FNDA:0,_RNvMsb_CshlPwPd0xWr0_17utoipa_swagger_uiNtB5_13SwaggerUiDist4iter
FNDA:0,_RNCNvMsb_CshlPwPd0xWr0_17utoipa_swagger_uiNtB7_13SwaggerUiDist4iter0B7_
FNDA:0,_RNvXsc_CshlPwPd0xWr0_17utoipa_swagger_uiNtB5_13SwaggerUiDistNtCscw3PcOhkeAa_10rust_embed9RustEmbed3get
FNDA:0,_RNvXsc_CshlPwPd0xWr0_17utoipa_swagger_uiNtB5_13SwaggerUiDistNtCscw3PcOhkeAa_10rust_embed9RustEmbed4iter
FNF:2
FNH:0
DA:3,0
BRF:0
BRH:0
LF:2
LH:0
end_of_record